
hx_kernel：     文件格式 elf32-i386


Disassembly of section .init.text:

00100000 <kern_init_text_start>:
  100000:	02 b0 ad 1b 03 00    	add    0x31bad(%eax),%dh
  100006:	00 00                	add    %al,(%eax)
  100008:	fb                   	sti    
  100009:	4f                   	dec    %edi
  10000a:	52                   	push   %edx
  10000b:	e4                   	.byte 0xe4

0010000c <start>:
  10000c:	89 1d 00 14 10 00    	mov    %ebx,0x101400
  100012:	bc ff 03 00 00       	mov    $0x3ff,%esp
  100017:	83 e4 f0             	and    $0xfffffff0,%esp
  10001a:	bd 00 00 00 00       	mov    $0x0,%ebp
  10001f:	e8 03 00 00 00       	call   100027 <kern_entry>

00100024 <noreturn>:
  100024:	f4                   	hlt    
  100025:	eb fd                	jmp    100024 <noreturn>

00100027 <kern_entry>:
  100027:	55                   	push   %ebp
  100028:	89 e5                	mov    %esp,%ebp
  10002a:	83 ec 08             	sub    $0x8,%esp
  10002d:	e8 24 00 00 00       	call   100056 <mmap_tmp_page>
  100032:	e8 e1 00 00 00       	call   100118 <enable_paging>
  100037:	a1 a4 96 10 c0       	mov    0xc01096a4,%eax
  10003c:	89 c4                	mov    %eax,%esp
  10003e:	31 ed                	xor    %ebp,%ebp
  100040:	a1 00 14 10 00       	mov    0x101400,%eax
  100045:	2d 00 00 00 40       	sub    $0x40000000,%eax
  10004a:	a3 00 90 11 c0       	mov    %eax,0xc0119000
  10004f:	e8 20 64 00 c0       	call   c0106474 <kern_init>
  100054:	c9                   	leave  
  100055:	c3                   	ret    

00100056 <mmap_tmp_page>:
  100056:	55                   	push   %ebp
  100057:	89 e5                	mov    %esp,%ebp
  100059:	83 ec 10             	sub    $0x10,%esp
  10005c:	a1 04 14 10 00       	mov    0x101404,%eax
  100061:	8b 15 08 14 10 00    	mov    0x101408,%edx
  100067:	83 ca 03             	or     $0x3,%edx
  10006a:	89 10                	mov    %edx,(%eax)
  10006c:	c7 45 fc 00 00 00 00 	movl   $0x0,-0x4(%ebp)
  100073:	eb 37                	jmp    1000ac <mmap_tmp_page+0x56>
  100075:	8b 45 fc             	mov    -0x4(%ebp),%eax
  100078:	c1 e0 16             	shl    $0x16,%eax
  10007b:	2d 00 00 00 40       	sub    $0x40000000,%eax
  100080:	c1 e8 16             	shr    $0x16,%eax
  100083:	89 45 f0             	mov    %eax,-0x10(%ebp)
  100086:	a1 04 14 10 00       	mov    0x101404,%eax
  10008b:	8b 55 f0             	mov    -0x10(%ebp),%edx
  10008e:	c1 e2 02             	shl    $0x2,%edx
  100091:	01 d0                	add    %edx,%eax
  100093:	8b 55 fc             	mov    -0x4(%ebp),%edx
  100096:	c1 e2 0c             	shl    $0xc,%edx
  100099:	89 d1                	mov    %edx,%ecx
  10009b:	8b 15 0c 14 10 00    	mov    0x10140c,%edx
  1000a1:	01 ca                	add    %ecx,%edx
  1000a3:	83 ca 03             	or     $0x3,%edx
  1000a6:	89 10                	mov    %edx,(%eax)
  1000a8:	83 45 fc 01          	addl   $0x1,-0x4(%ebp)
  1000ac:	83 7d fc 03          	cmpl   $0x3,-0x4(%ebp)
  1000b0:	7e c3                	jle    100075 <mmap_tmp_page+0x1f>
  1000b2:	c7 45 f8 00 00 00 00 	movl   $0x0,-0x8(%ebp)
  1000b9:	eb 1c                	jmp    1000d7 <mmap_tmp_page+0x81>
  1000bb:	a1 08 14 10 00       	mov    0x101408,%eax
  1000c0:	8b 55 f8             	mov    -0x8(%ebp),%edx
  1000c3:	c1 e2 02             	shl    $0x2,%edx
  1000c6:	01 c2                	add    %eax,%edx
  1000c8:	8b 45 f8             	mov    -0x8(%ebp),%eax
  1000cb:	c1 e0 0c             	shl    $0xc,%eax
  1000ce:	83 c8 03             	or     $0x3,%eax
  1000d1:	89 02                	mov    %eax,(%edx)
  1000d3:	83 45 f8 01          	addl   $0x1,-0x8(%ebp)
  1000d7:	81 7d f8 ff 03 00 00 	cmpl   $0x3ff,-0x8(%ebp)
  1000de:	7e db                	jle    1000bb <mmap_tmp_page+0x65>
  1000e0:	c7 45 f4 00 00 00 00 	movl   $0x0,-0xc(%ebp)
  1000e7:	eb 1c                	jmp    100105 <mmap_tmp_page+0xaf>
  1000e9:	a1 0c 14 10 00       	mov    0x10140c,%eax
  1000ee:	8b 55 f4             	mov    -0xc(%ebp),%edx
  1000f1:	c1 e2 02             	shl    $0x2,%edx
  1000f4:	01 c2                	add    %eax,%edx
  1000f6:	8b 45 f4             	mov    -0xc(%ebp),%eax
  1000f9:	c1 e0 0c             	shl    $0xc,%eax
  1000fc:	83 c8 03             	or     $0x3,%eax
  1000ff:	89 02                	mov    %eax,(%edx)
  100101:	83 45 f4 01          	addl   $0x1,-0xc(%ebp)
  100105:	81 7d f4 ff 0f 00 00 	cmpl   $0xfff,-0xc(%ebp)
  10010c:	7e db                	jle    1000e9 <mmap_tmp_page+0x93>
  10010e:	a1 04 14 10 00       	mov    0x101404,%eax
  100113:	0f 22 d8             	mov    %eax,%cr3
  100116:	c9                   	leave  
  100117:	c3                   	ret    

00100118 <enable_paging>:
  100118:	55                   	push   %ebp
  100119:	89 e5                	mov    %esp,%ebp
  10011b:	83 ec 10             	sub    $0x10,%esp
  10011e:	0f 20 c0             	mov    %cr0,%eax
  100121:	89 45 fc             	mov    %eax,-0x4(%ebp)
  100124:	81 4d fc 00 00 00 80 	orl    $0x80000000,-0x4(%ebp)
  10012b:	8b 45 fc             	mov    -0x4(%ebp),%eax
  10012e:	0f 22 c0             	mov    %eax,%cr0
  100131:	c9                   	leave  
  100132:	c3                   	ret    
  100133:	66 90                	xchg   %ax,%ax
  100135:	66 90                	xchg   %ax,%ax
  100137:	66 90                	xchg   %ax,%ax
  100139:	66 90                	xchg   %ax,%ax
  10013b:	66 90                	xchg   %ax,%ax
  10013d:	66 90                	xchg   %ax,%ax
  10013f:	66 90                	xchg   %ax,%ax
  100141:	66 90                	xchg   %ax,%ax
  100143:	66 90                	xchg   %ax,%ax
  100145:	66 90                	xchg   %ax,%ax
  100147:	66 90                	xchg   %ax,%ax
  100149:	66 90                	xchg   %ax,%ax
  10014b:	66 90                	xchg   %ax,%ax
  10014d:	66 90                	xchg   %ax,%ax
  10014f:	66 90                	xchg   %ax,%ax
  100151:	66 90                	xchg   %ax,%ax
  100153:	66 90                	xchg   %ax,%ax
  100155:	66 90                	xchg   %ax,%ax
  100157:	66 90                	xchg   %ax,%ax
  100159:	66 90                	xchg   %ax,%ax
  10015b:	66 90                	xchg   %ax,%ax
  10015d:	66 90                	xchg   %ax,%ax
  10015f:	66 90                	xchg   %ax,%ax
  100161:	66 90                	xchg   %ax,%ax
  100163:	66 90                	xchg   %ax,%ax
  100165:	66 90                	xchg   %ax,%ax
  100167:	66 90                	xchg   %ax,%ax
  100169:	66 90                	xchg   %ax,%ax
  10016b:	66 90                	xchg   %ax,%ax
  10016d:	66 90                	xchg   %ax,%ax
  10016f:	66 90                	xchg   %ax,%ax
  100171:	66 90                	xchg   %ax,%ax
  100173:	66 90                	xchg   %ax,%ax
  100175:	66 90                	xchg   %ax,%ax
  100177:	66 90                	xchg   %ax,%ax
  100179:	66 90                	xchg   %ax,%ax
  10017b:	66 90                	xchg   %ax,%ax
  10017d:	66 90                	xchg   %ax,%ax
  10017f:	66 90                	xchg   %ax,%ax
  100181:	66 90                	xchg   %ax,%ax
  100183:	66 90                	xchg   %ax,%ax
  100185:	66 90                	xchg   %ax,%ax
  100187:	66 90                	xchg   %ax,%ax
  100189:	66 90                	xchg   %ax,%ax
  10018b:	66 90                	xchg   %ax,%ax
  10018d:	66 90                	xchg   %ax,%ax
  10018f:	66 90                	xchg   %ax,%ax
  100191:	66 90                	xchg   %ax,%ax
  100193:	66 90                	xchg   %ax,%ax
  100195:	66 90                	xchg   %ax,%ax
  100197:	66 90                	xchg   %ax,%ax
  100199:	66 90                	xchg   %ax,%ax
  10019b:	66 90                	xchg   %ax,%ax
  10019d:	66 90                	xchg   %ax,%ax
  10019f:	66 90                	xchg   %ax,%ax
  1001a1:	66 90                	xchg   %ax,%ax
  1001a3:	66 90                	xchg   %ax,%ax
  1001a5:	66 90                	xchg   %ax,%ax
  1001a7:	66 90                	xchg   %ax,%ax
  1001a9:	66 90                	xchg   %ax,%ax
  1001ab:	66 90                	xchg   %ax,%ax
  1001ad:	66 90                	xchg   %ax,%ax
  1001af:	66 90                	xchg   %ax,%ax
  1001b1:	66 90                	xchg   %ax,%ax
  1001b3:	66 90                	xchg   %ax,%ax
  1001b5:	66 90                	xchg   %ax,%ax
  1001b7:	66 90                	xchg   %ax,%ax
  1001b9:	66 90                	xchg   %ax,%ax
  1001bb:	66 90                	xchg   %ax,%ax
  1001bd:	66 90                	xchg   %ax,%ax
  1001bf:	66 90                	xchg   %ax,%ax
  1001c1:	66 90                	xchg   %ax,%ax
  1001c3:	66 90                	xchg   %ax,%ax
  1001c5:	66 90                	xchg   %ax,%ax
  1001c7:	66 90                	xchg   %ax,%ax
  1001c9:	66 90                	xchg   %ax,%ax
  1001cb:	66 90                	xchg   %ax,%ax
  1001cd:	66 90                	xchg   %ax,%ax
  1001cf:	66 90                	xchg   %ax,%ax
  1001d1:	66 90                	xchg   %ax,%ax
  1001d3:	66 90                	xchg   %ax,%ax
  1001d5:	66 90                	xchg   %ax,%ax
  1001d7:	66 90                	xchg   %ax,%ax
  1001d9:	66 90                	xchg   %ax,%ax
  1001db:	66 90                	xchg   %ax,%ax
  1001dd:	66 90                	xchg   %ax,%ax
  1001df:	66 90                	xchg   %ax,%ax
  1001e1:	66 90                	xchg   %ax,%ax
  1001e3:	66 90                	xchg   %ax,%ax
  1001e5:	66 90                	xchg   %ax,%ax
  1001e7:	66 90                	xchg   %ax,%ax
  1001e9:	66 90                	xchg   %ax,%ax
  1001eb:	66 90                	xchg   %ax,%ax
  1001ed:	66 90                	xchg   %ax,%ax
  1001ef:	66 90                	xchg   %ax,%ax
  1001f1:	66 90                	xchg   %ax,%ax
  1001f3:	66 90                	xchg   %ax,%ax
  1001f5:	66 90                	xchg   %ax,%ax
  1001f7:	66 90                	xchg   %ax,%ax
  1001f9:	66 90                	xchg   %ax,%ax
  1001fb:	66 90                	xchg   %ax,%ax
  1001fd:	66 90                	xchg   %ax,%ax
  1001ff:	66 90                	xchg   %ax,%ax
  100201:	66 90                	xchg   %ax,%ax
  100203:	66 90                	xchg   %ax,%ax
  100205:	66 90                	xchg   %ax,%ax
  100207:	66 90                	xchg   %ax,%ax
  100209:	66 90                	xchg   %ax,%ax
  10020b:	66 90                	xchg   %ax,%ax
  10020d:	66 90                	xchg   %ax,%ax
  10020f:	66 90                	xchg   %ax,%ax
  100211:	66 90                	xchg   %ax,%ax
  100213:	66 90                	xchg   %ax,%ax
  100215:	66 90                	xchg   %ax,%ax
  100217:	66 90                	xchg   %ax,%ax
  100219:	66 90                	xchg   %ax,%ax
  10021b:	66 90                	xchg   %ax,%ax
  10021d:	66 90                	xchg   %ax,%ax
  10021f:	66 90                	xchg   %ax,%ax
  100221:	66 90                	xchg   %ax,%ax
  100223:	66 90                	xchg   %ax,%ax
  100225:	66 90                	xchg   %ax,%ax
  100227:	66 90                	xchg   %ax,%ax
  100229:	66 90                	xchg   %ax,%ax
  10022b:	66 90                	xchg   %ax,%ax
  10022d:	66 90                	xchg   %ax,%ax
  10022f:	66 90                	xchg   %ax,%ax
  100231:	66 90                	xchg   %ax,%ax
  100233:	66 90                	xchg   %ax,%ax
  100235:	66 90                	xchg   %ax,%ax
  100237:	66 90                	xchg   %ax,%ax
  100239:	66 90                	xchg   %ax,%ax
  10023b:	66 90                	xchg   %ax,%ax
  10023d:	66 90                	xchg   %ax,%ax
  10023f:	66 90                	xchg   %ax,%ax
  100241:	66 90                	xchg   %ax,%ax
  100243:	66 90                	xchg   %ax,%ax
  100245:	66 90                	xchg   %ax,%ax
  100247:	66 90                	xchg   %ax,%ax
  100249:	66 90                	xchg   %ax,%ax
  10024b:	66 90                	xchg   %ax,%ax
  10024d:	66 90                	xchg   %ax,%ax
  10024f:	66 90                	xchg   %ax,%ax
  100251:	66 90                	xchg   %ax,%ax
  100253:	66 90                	xchg   %ax,%ax
  100255:	66 90                	xchg   %ax,%ax
  100257:	66 90                	xchg   %ax,%ax
  100259:	66 90                	xchg   %ax,%ax
  10025b:	66 90                	xchg   %ax,%ax
  10025d:	66 90                	xchg   %ax,%ax
  10025f:	66 90                	xchg   %ax,%ax
  100261:	66 90                	xchg   %ax,%ax
  100263:	66 90                	xchg   %ax,%ax
  100265:	66 90                	xchg   %ax,%ax
  100267:	66 90                	xchg   %ax,%ax
  100269:	66 90                	xchg   %ax,%ax
  10026b:	66 90                	xchg   %ax,%ax
  10026d:	66 90                	xchg   %ax,%ax
  10026f:	66 90                	xchg   %ax,%ax
  100271:	66 90                	xchg   %ax,%ax
  100273:	66 90                	xchg   %ax,%ax
  100275:	66 90                	xchg   %ax,%ax
  100277:	66 90                	xchg   %ax,%ax
  100279:	66 90                	xchg   %ax,%ax
  10027b:	66 90                	xchg   %ax,%ax
  10027d:	66 90                	xchg   %ax,%ax
  10027f:	66 90                	xchg   %ax,%ax
  100281:	66 90                	xchg   %ax,%ax
  100283:	66 90                	xchg   %ax,%ax
  100285:	66 90                	xchg   %ax,%ax
  100287:	66 90                	xchg   %ax,%ax
  100289:	66 90                	xchg   %ax,%ax
  10028b:	66 90                	xchg   %ax,%ax
  10028d:	66 90                	xchg   %ax,%ax
  10028f:	66 90                	xchg   %ax,%ax
  100291:	66 90                	xchg   %ax,%ax
  100293:	66 90                	xchg   %ax,%ax
  100295:	66 90                	xchg   %ax,%ax
  100297:	66 90                	xchg   %ax,%ax
  100299:	66 90                	xchg   %ax,%ax
  10029b:	66 90                	xchg   %ax,%ax
  10029d:	66 90                	xchg   %ax,%ax
  10029f:	66 90                	xchg   %ax,%ax
  1002a1:	66 90                	xchg   %ax,%ax
  1002a3:	66 90                	xchg   %ax,%ax
  1002a5:	66 90                	xchg   %ax,%ax
  1002a7:	66 90                	xchg   %ax,%ax
  1002a9:	66 90                	xchg   %ax,%ax
  1002ab:	66 90                	xchg   %ax,%ax
  1002ad:	66 90                	xchg   %ax,%ax
  1002af:	66 90                	xchg   %ax,%ax
  1002b1:	66 90                	xchg   %ax,%ax
  1002b3:	66 90                	xchg   %ax,%ax
  1002b5:	66 90                	xchg   %ax,%ax
  1002b7:	66 90                	xchg   %ax,%ax
  1002b9:	66 90                	xchg   %ax,%ax
  1002bb:	66 90                	xchg   %ax,%ax
  1002bd:	66 90                	xchg   %ax,%ax
  1002bf:	66 90                	xchg   %ax,%ax
  1002c1:	66 90                	xchg   %ax,%ax
  1002c3:	66 90                	xchg   %ax,%ax
  1002c5:	66 90                	xchg   %ax,%ax
  1002c7:	66 90                	xchg   %ax,%ax
  1002c9:	66 90                	xchg   %ax,%ax
  1002cb:	66 90                	xchg   %ax,%ax
  1002cd:	66 90                	xchg   %ax,%ax
  1002cf:	66 90                	xchg   %ax,%ax
  1002d1:	66 90                	xchg   %ax,%ax
  1002d3:	66 90                	xchg   %ax,%ax
  1002d5:	66 90                	xchg   %ax,%ax
  1002d7:	66 90                	xchg   %ax,%ax
  1002d9:	66 90                	xchg   %ax,%ax
  1002db:	66 90                	xchg   %ax,%ax
  1002dd:	66 90                	xchg   %ax,%ax
  1002df:	66 90                	xchg   %ax,%ax
  1002e1:	66 90                	xchg   %ax,%ax
  1002e3:	66 90                	xchg   %ax,%ax
  1002e5:	66 90                	xchg   %ax,%ax
  1002e7:	66 90                	xchg   %ax,%ax
  1002e9:	66 90                	xchg   %ax,%ax
  1002eb:	66 90                	xchg   %ax,%ax
  1002ed:	66 90                	xchg   %ax,%ax
  1002ef:	66 90                	xchg   %ax,%ax
  1002f1:	66 90                	xchg   %ax,%ax
  1002f3:	66 90                	xchg   %ax,%ax
  1002f5:	66 90                	xchg   %ax,%ax
  1002f7:	66 90                	xchg   %ax,%ax
  1002f9:	66 90                	xchg   %ax,%ax
  1002fb:	66 90                	xchg   %ax,%ax
  1002fd:	66 90                	xchg   %ax,%ax
  1002ff:	66 90                	xchg   %ax,%ax
  100301:	66 90                	xchg   %ax,%ax
  100303:	66 90                	xchg   %ax,%ax
  100305:	66 90                	xchg   %ax,%ax
  100307:	66 90                	xchg   %ax,%ax
  100309:	66 90                	xchg   %ax,%ax
  10030b:	66 90                	xchg   %ax,%ax
  10030d:	66 90                	xchg   %ax,%ax
  10030f:	66 90                	xchg   %ax,%ax
  100311:	66 90                	xchg   %ax,%ax
  100313:	66 90                	xchg   %ax,%ax
  100315:	66 90                	xchg   %ax,%ax
  100317:	66 90                	xchg   %ax,%ax
  100319:	66 90                	xchg   %ax,%ax
  10031b:	66 90                	xchg   %ax,%ax
  10031d:	66 90                	xchg   %ax,%ax
  10031f:	66 90                	xchg   %ax,%ax
  100321:	66 90                	xchg   %ax,%ax
  100323:	66 90                	xchg   %ax,%ax
  100325:	66 90                	xchg   %ax,%ax
  100327:	66 90                	xchg   %ax,%ax
  100329:	66 90                	xchg   %ax,%ax
  10032b:	66 90                	xchg   %ax,%ax
  10032d:	66 90                	xchg   %ax,%ax
  10032f:	66 90                	xchg   %ax,%ax
  100331:	66 90                	xchg   %ax,%ax
  100333:	66 90                	xchg   %ax,%ax
  100335:	66 90                	xchg   %ax,%ax
  100337:	66 90                	xchg   %ax,%ax
  100339:	66 90                	xchg   %ax,%ax
  10033b:	66 90                	xchg   %ax,%ax
  10033d:	66 90                	xchg   %ax,%ax
  10033f:	66 90                	xchg   %ax,%ax
  100341:	66 90                	xchg   %ax,%ax
  100343:	66 90                	xchg   %ax,%ax
  100345:	66 90                	xchg   %ax,%ax
  100347:	66 90                	xchg   %ax,%ax
  100349:	66 90                	xchg   %ax,%ax
  10034b:	66 90                	xchg   %ax,%ax
  10034d:	66 90                	xchg   %ax,%ax
  10034f:	66 90                	xchg   %ax,%ax
  100351:	66 90                	xchg   %ax,%ax
  100353:	66 90                	xchg   %ax,%ax
  100355:	66 90                	xchg   %ax,%ax
  100357:	66 90                	xchg   %ax,%ax
  100359:	66 90                	xchg   %ax,%ax
  10035b:	66 90                	xchg   %ax,%ax
  10035d:	66 90                	xchg   %ax,%ax
  10035f:	66 90                	xchg   %ax,%ax
  100361:	66 90                	xchg   %ax,%ax
  100363:	66 90                	xchg   %ax,%ax
  100365:	66 90                	xchg   %ax,%ax
  100367:	66 90                	xchg   %ax,%ax
  100369:	66 90                	xchg   %ax,%ax
  10036b:	66 90                	xchg   %ax,%ax
  10036d:	66 90                	xchg   %ax,%ax
  10036f:	66 90                	xchg   %ax,%ax
  100371:	66 90                	xchg   %ax,%ax
  100373:	66 90                	xchg   %ax,%ax
  100375:	66 90                	xchg   %ax,%ax
  100377:	66 90                	xchg   %ax,%ax
  100379:	66 90                	xchg   %ax,%ax
  10037b:	66 90                	xchg   %ax,%ax
  10037d:	66 90                	xchg   %ax,%ax
  10037f:	66 90                	xchg   %ax,%ax
  100381:	66 90                	xchg   %ax,%ax
  100383:	66 90                	xchg   %ax,%ax
  100385:	66 90                	xchg   %ax,%ax
  100387:	66 90                	xchg   %ax,%ax
  100389:	66 90                	xchg   %ax,%ax
  10038b:	66 90                	xchg   %ax,%ax
  10038d:	66 90                	xchg   %ax,%ax
  10038f:	66 90                	xchg   %ax,%ax
  100391:	66 90                	xchg   %ax,%ax
  100393:	66 90                	xchg   %ax,%ax
  100395:	66 90                	xchg   %ax,%ax
  100397:	66 90                	xchg   %ax,%ax
  100399:	66 90                	xchg   %ax,%ax
  10039b:	66 90                	xchg   %ax,%ax
  10039d:	66 90                	xchg   %ax,%ax
  10039f:	66 90                	xchg   %ax,%ax
  1003a1:	66 90                	xchg   %ax,%ax
  1003a3:	66 90                	xchg   %ax,%ax
  1003a5:	66 90                	xchg   %ax,%ax
  1003a7:	66 90                	xchg   %ax,%ax
  1003a9:	66 90                	xchg   %ax,%ax
  1003ab:	66 90                	xchg   %ax,%ax
  1003ad:	66 90                	xchg   %ax,%ax
  1003af:	66 90                	xchg   %ax,%ax
  1003b1:	66 90                	xchg   %ax,%ax
  1003b3:	66 90                	xchg   %ax,%ax
  1003b5:	66 90                	xchg   %ax,%ax
  1003b7:	66 90                	xchg   %ax,%ax
  1003b9:	66 90                	xchg   %ax,%ax
  1003bb:	66 90                	xchg   %ax,%ax
  1003bd:	66 90                	xchg   %ax,%ax
  1003bf:	66 90                	xchg   %ax,%ax
  1003c1:	66 90                	xchg   %ax,%ax
  1003c3:	66 90                	xchg   %ax,%ax
  1003c5:	66 90                	xchg   %ax,%ax
  1003c7:	66 90                	xchg   %ax,%ax
  1003c9:	66 90                	xchg   %ax,%ax
  1003cb:	66 90                	xchg   %ax,%ax
  1003cd:	66 90                	xchg   %ax,%ax
  1003cf:	66 90                	xchg   %ax,%ax
  1003d1:	66 90                	xchg   %ax,%ax
  1003d3:	66 90                	xchg   %ax,%ax
  1003d5:	66 90                	xchg   %ax,%ax
  1003d7:	66 90                	xchg   %ax,%ax
  1003d9:	66 90                	xchg   %ax,%ax
  1003db:	66 90                	xchg   %ax,%ax
  1003dd:	66 90                	xchg   %ax,%ax
  1003df:	66 90                	xchg   %ax,%ax
  1003e1:	66 90                	xchg   %ax,%ax
  1003e3:	66 90                	xchg   %ax,%ax
  1003e5:	66 90                	xchg   %ax,%ax
  1003e7:	66 90                	xchg   %ax,%ax
  1003e9:	66 90                	xchg   %ax,%ax
  1003eb:	66 90                	xchg   %ax,%ax
  1003ed:	66 90                	xchg   %ax,%ax
  1003ef:	66 90                	xchg   %ax,%ax
  1003f1:	66 90                	xchg   %ax,%ax
  1003f3:	66 90                	xchg   %ax,%ax
  1003f5:	66 90                	xchg   %ax,%ax
  1003f7:	66 90                	xchg   %ax,%ax
  1003f9:	66 90                	xchg   %ax,%ax
  1003fb:	66 90                	xchg   %ax,%ax
  1003fd:	66 90                	xchg   %ax,%ax
  1003ff:	66 90                	xchg   %ax,%ax
  100401:	66 90                	xchg   %ax,%ax
  100403:	66 90                	xchg   %ax,%ax
  100405:	66 90                	xchg   %ax,%ax
  100407:	66 90                	xchg   %ax,%ax
  100409:	66 90                	xchg   %ax,%ax
  10040b:	66 90                	xchg   %ax,%ax
  10040d:	66 90                	xchg   %ax,%ax
  10040f:	66 90                	xchg   %ax,%ax
  100411:	66 90                	xchg   %ax,%ax
  100413:	66 90                	xchg   %ax,%ax
  100415:	66 90                	xchg   %ax,%ax
  100417:	66 90                	xchg   %ax,%ax
  100419:	66 90                	xchg   %ax,%ax
  10041b:	66 90                	xchg   %ax,%ax
  10041d:	66 90                	xchg   %ax,%ax
  10041f:	66 90                	xchg   %ax,%ax
  100421:	66 90                	xchg   %ax,%ax
  100423:	66 90                	xchg   %ax,%ax
  100425:	66 90                	xchg   %ax,%ax
  100427:	66 90                	xchg   %ax,%ax
  100429:	66 90                	xchg   %ax,%ax
  10042b:	66 90                	xchg   %ax,%ax
  10042d:	66 90                	xchg   %ax,%ax
  10042f:	66 90                	xchg   %ax,%ax
  100431:	66 90                	xchg   %ax,%ax
  100433:	66 90                	xchg   %ax,%ax
  100435:	66 90                	xchg   %ax,%ax
  100437:	66 90                	xchg   %ax,%ax
  100439:	66 90                	xchg   %ax,%ax
  10043b:	66 90                	xchg   %ax,%ax
  10043d:	66 90                	xchg   %ax,%ax
  10043f:	66 90                	xchg   %ax,%ax
  100441:	66 90                	xchg   %ax,%ax
  100443:	66 90                	xchg   %ax,%ax
  100445:	66 90                	xchg   %ax,%ax
  100447:	66 90                	xchg   %ax,%ax
  100449:	66 90                	xchg   %ax,%ax
  10044b:	66 90                	xchg   %ax,%ax
  10044d:	66 90                	xchg   %ax,%ax
  10044f:	66 90                	xchg   %ax,%ax
  100451:	66 90                	xchg   %ax,%ax
  100453:	66 90                	xchg   %ax,%ax
  100455:	66 90                	xchg   %ax,%ax
  100457:	66 90                	xchg   %ax,%ax
  100459:	66 90                	xchg   %ax,%ax
  10045b:	66 90                	xchg   %ax,%ax
  10045d:	66 90                	xchg   %ax,%ax
  10045f:	66 90                	xchg   %ax,%ax
  100461:	66 90                	xchg   %ax,%ax
  100463:	66 90                	xchg   %ax,%ax
  100465:	66 90                	xchg   %ax,%ax
  100467:	66 90                	xchg   %ax,%ax
  100469:	66 90                	xchg   %ax,%ax
  10046b:	66 90                	xchg   %ax,%ax
  10046d:	66 90                	xchg   %ax,%ax
  10046f:	66 90                	xchg   %ax,%ax
  100471:	66 90                	xchg   %ax,%ax
  100473:	66 90                	xchg   %ax,%ax
  100475:	66 90                	xchg   %ax,%ax
  100477:	66 90                	xchg   %ax,%ax
  100479:	66 90                	xchg   %ax,%ax
  10047b:	66 90                	xchg   %ax,%ax
  10047d:	66 90                	xchg   %ax,%ax
  10047f:	66 90                	xchg   %ax,%ax
  100481:	66 90                	xchg   %ax,%ax
  100483:	66 90                	xchg   %ax,%ax
  100485:	66 90                	xchg   %ax,%ax
  100487:	66 90                	xchg   %ax,%ax
  100489:	66 90                	xchg   %ax,%ax
  10048b:	66 90                	xchg   %ax,%ax
  10048d:	66 90                	xchg   %ax,%ax
  10048f:	66 90                	xchg   %ax,%ax
  100491:	66 90                	xchg   %ax,%ax
  100493:	66 90                	xchg   %ax,%ax
  100495:	66 90                	xchg   %ax,%ax
  100497:	66 90                	xchg   %ax,%ax
  100499:	66 90                	xchg   %ax,%ax
  10049b:	66 90                	xchg   %ax,%ax
  10049d:	66 90                	xchg   %ax,%ax
  10049f:	66 90                	xchg   %ax,%ax
  1004a1:	66 90                	xchg   %ax,%ax
  1004a3:	66 90                	xchg   %ax,%ax
  1004a5:	66 90                	xchg   %ax,%ax
  1004a7:	66 90                	xchg   %ax,%ax
  1004a9:	66 90                	xchg   %ax,%ax
  1004ab:	66 90                	xchg   %ax,%ax
  1004ad:	66 90                	xchg   %ax,%ax
  1004af:	66 90                	xchg   %ax,%ax
  1004b1:	66 90                	xchg   %ax,%ax
  1004b3:	66 90                	xchg   %ax,%ax
  1004b5:	66 90                	xchg   %ax,%ax
  1004b7:	66 90                	xchg   %ax,%ax
  1004b9:	66 90                	xchg   %ax,%ax
  1004bb:	66 90                	xchg   %ax,%ax
  1004bd:	66 90                	xchg   %ax,%ax
  1004bf:	66 90                	xchg   %ax,%ax
  1004c1:	66 90                	xchg   %ax,%ax
  1004c3:	66 90                	xchg   %ax,%ax
  1004c5:	66 90                	xchg   %ax,%ax
  1004c7:	66 90                	xchg   %ax,%ax
  1004c9:	66 90                	xchg   %ax,%ax
  1004cb:	66 90                	xchg   %ax,%ax
  1004cd:	66 90                	xchg   %ax,%ax
  1004cf:	66 90                	xchg   %ax,%ax
  1004d1:	66 90                	xchg   %ax,%ax
  1004d3:	66 90                	xchg   %ax,%ax
  1004d5:	66 90                	xchg   %ax,%ax
  1004d7:	66 90                	xchg   %ax,%ax
  1004d9:	66 90                	xchg   %ax,%ax
  1004db:	66 90                	xchg   %ax,%ax
  1004dd:	66 90                	xchg   %ax,%ax
  1004df:	66 90                	xchg   %ax,%ax
  1004e1:	66 90                	xchg   %ax,%ax
  1004e3:	66 90                	xchg   %ax,%ax
  1004e5:	66 90                	xchg   %ax,%ax
  1004e7:	66 90                	xchg   %ax,%ax
  1004e9:	66 90                	xchg   %ax,%ax
  1004eb:	66 90                	xchg   %ax,%ax
  1004ed:	66 90                	xchg   %ax,%ax
  1004ef:	66 90                	xchg   %ax,%ax
  1004f1:	66 90                	xchg   %ax,%ax
  1004f3:	66 90                	xchg   %ax,%ax
  1004f5:	66 90                	xchg   %ax,%ax
  1004f7:	66 90                	xchg   %ax,%ax
  1004f9:	66 90                	xchg   %ax,%ax
  1004fb:	66 90                	xchg   %ax,%ax
  1004fd:	66 90                	xchg   %ax,%ax
  1004ff:	66 90                	xchg   %ax,%ax
  100501:	66 90                	xchg   %ax,%ax
  100503:	66 90                	xchg   %ax,%ax
  100505:	66 90                	xchg   %ax,%ax
  100507:	66 90                	xchg   %ax,%ax
  100509:	66 90                	xchg   %ax,%ax
  10050b:	66 90                	xchg   %ax,%ax
  10050d:	66 90                	xchg   %ax,%ax
  10050f:	66 90                	xchg   %ax,%ax
  100511:	66 90                	xchg   %ax,%ax
  100513:	66 90                	xchg   %ax,%ax
  100515:	66 90                	xchg   %ax,%ax
  100517:	66 90                	xchg   %ax,%ax
  100519:	66 90                	xchg   %ax,%ax
  10051b:	66 90                	xchg   %ax,%ax
  10051d:	66 90                	xchg   %ax,%ax
  10051f:	66 90                	xchg   %ax,%ax
  100521:	66 90                	xchg   %ax,%ax
  100523:	66 90                	xchg   %ax,%ax
  100525:	66 90                	xchg   %ax,%ax
  100527:	66 90                	xchg   %ax,%ax
  100529:	66 90                	xchg   %ax,%ax
  10052b:	66 90                	xchg   %ax,%ax
  10052d:	66 90                	xchg   %ax,%ax
  10052f:	66 90                	xchg   %ax,%ax
  100531:	66 90                	xchg   %ax,%ax
  100533:	66 90                	xchg   %ax,%ax
  100535:	66 90                	xchg   %ax,%ax
  100537:	66 90                	xchg   %ax,%ax
  100539:	66 90                	xchg   %ax,%ax
  10053b:	66 90                	xchg   %ax,%ax
  10053d:	66 90                	xchg   %ax,%ax
  10053f:	66 90                	xchg   %ax,%ax
  100541:	66 90                	xchg   %ax,%ax
  100543:	66 90                	xchg   %ax,%ax
  100545:	66 90                	xchg   %ax,%ax
  100547:	66 90                	xchg   %ax,%ax
  100549:	66 90                	xchg   %ax,%ax
  10054b:	66 90                	xchg   %ax,%ax
  10054d:	66 90                	xchg   %ax,%ax
  10054f:	66 90                	xchg   %ax,%ax
  100551:	66 90                	xchg   %ax,%ax
  100553:	66 90                	xchg   %ax,%ax
  100555:	66 90                	xchg   %ax,%ax
  100557:	66 90                	xchg   %ax,%ax
  100559:	66 90                	xchg   %ax,%ax
  10055b:	66 90                	xchg   %ax,%ax
  10055d:	66 90                	xchg   %ax,%ax
  10055f:	66 90                	xchg   %ax,%ax
  100561:	66 90                	xchg   %ax,%ax
  100563:	66 90                	xchg   %ax,%ax
  100565:	66 90                	xchg   %ax,%ax
  100567:	66 90                	xchg   %ax,%ax
  100569:	66 90                	xchg   %ax,%ax
  10056b:	66 90                	xchg   %ax,%ax
  10056d:	66 90                	xchg   %ax,%ax
  10056f:	66 90                	xchg   %ax,%ax
  100571:	66 90                	xchg   %ax,%ax
  100573:	66 90                	xchg   %ax,%ax
  100575:	66 90                	xchg   %ax,%ax
  100577:	66 90                	xchg   %ax,%ax
  100579:	66 90                	xchg   %ax,%ax
  10057b:	66 90                	xchg   %ax,%ax
  10057d:	66 90                	xchg   %ax,%ax
  10057f:	66 90                	xchg   %ax,%ax
  100581:	66 90                	xchg   %ax,%ax
  100583:	66 90                	xchg   %ax,%ax
  100585:	66 90                	xchg   %ax,%ax
  100587:	66 90                	xchg   %ax,%ax
  100589:	66 90                	xchg   %ax,%ax
  10058b:	66 90                	xchg   %ax,%ax
  10058d:	66 90                	xchg   %ax,%ax
  10058f:	66 90                	xchg   %ax,%ax
  100591:	66 90                	xchg   %ax,%ax
  100593:	66 90                	xchg   %ax,%ax
  100595:	66 90                	xchg   %ax,%ax
  100597:	66 90                	xchg   %ax,%ax
  100599:	66 90                	xchg   %ax,%ax
  10059b:	66 90                	xchg   %ax,%ax
  10059d:	66 90                	xchg   %ax,%ax
  10059f:	66 90                	xchg   %ax,%ax
  1005a1:	66 90                	xchg   %ax,%ax
  1005a3:	66 90                	xchg   %ax,%ax
  1005a5:	66 90                	xchg   %ax,%ax
  1005a7:	66 90                	xchg   %ax,%ax
  1005a9:	66 90                	xchg   %ax,%ax
  1005ab:	66 90                	xchg   %ax,%ax
  1005ad:	66 90                	xchg   %ax,%ax
  1005af:	66 90                	xchg   %ax,%ax
  1005b1:	66 90                	xchg   %ax,%ax
  1005b3:	66 90                	xchg   %ax,%ax
  1005b5:	66 90                	xchg   %ax,%ax
  1005b7:	66 90                	xchg   %ax,%ax
  1005b9:	66 90                	xchg   %ax,%ax
  1005bb:	66 90                	xchg   %ax,%ax
  1005bd:	66 90                	xchg   %ax,%ax
  1005bf:	66 90                	xchg   %ax,%ax
  1005c1:	66 90                	xchg   %ax,%ax
  1005c3:	66 90                	xchg   %ax,%ax
  1005c5:	66 90                	xchg   %ax,%ax
  1005c7:	66 90                	xchg   %ax,%ax
  1005c9:	66 90                	xchg   %ax,%ax
  1005cb:	66 90                	xchg   %ax,%ax
  1005cd:	66 90                	xchg   %ax,%ax
  1005cf:	66 90                	xchg   %ax,%ax
  1005d1:	66 90                	xchg   %ax,%ax
  1005d3:	66 90                	xchg   %ax,%ax
  1005d5:	66 90                	xchg   %ax,%ax
  1005d7:	66 90                	xchg   %ax,%ax
  1005d9:	66 90                	xchg   %ax,%ax
  1005db:	66 90                	xchg   %ax,%ax
  1005dd:	66 90                	xchg   %ax,%ax
  1005df:	66 90                	xchg   %ax,%ax
  1005e1:	66 90                	xchg   %ax,%ax
  1005e3:	66 90                	xchg   %ax,%ax
  1005e5:	66 90                	xchg   %ax,%ax
  1005e7:	66 90                	xchg   %ax,%ax
  1005e9:	66 90                	xchg   %ax,%ax
  1005eb:	66 90                	xchg   %ax,%ax
  1005ed:	66 90                	xchg   %ax,%ax
  1005ef:	66 90                	xchg   %ax,%ax
  1005f1:	66 90                	xchg   %ax,%ax
  1005f3:	66 90                	xchg   %ax,%ax
  1005f5:	66 90                	xchg   %ax,%ax
  1005f7:	66 90                	xchg   %ax,%ax
  1005f9:	66 90                	xchg   %ax,%ax
  1005fb:	66 90                	xchg   %ax,%ax
  1005fd:	66 90                	xchg   %ax,%ax
  1005ff:	66 90                	xchg   %ax,%ax
  100601:	66 90                	xchg   %ax,%ax
  100603:	66 90                	xchg   %ax,%ax
  100605:	66 90                	xchg   %ax,%ax
  100607:	66 90                	xchg   %ax,%ax
  100609:	66 90                	xchg   %ax,%ax
  10060b:	66 90                	xchg   %ax,%ax
  10060d:	66 90                	xchg   %ax,%ax
  10060f:	66 90                	xchg   %ax,%ax
  100611:	66 90                	xchg   %ax,%ax
  100613:	66 90                	xchg   %ax,%ax
  100615:	66 90                	xchg   %ax,%ax
  100617:	66 90                	xchg   %ax,%ax
  100619:	66 90                	xchg   %ax,%ax
  10061b:	66 90                	xchg   %ax,%ax
  10061d:	66 90                	xchg   %ax,%ax
  10061f:	66 90                	xchg   %ax,%ax
  100621:	66 90                	xchg   %ax,%ax
  100623:	66 90                	xchg   %ax,%ax
  100625:	66 90                	xchg   %ax,%ax
  100627:	66 90                	xchg   %ax,%ax
  100629:	66 90                	xchg   %ax,%ax
  10062b:	66 90                	xchg   %ax,%ax
  10062d:	66 90                	xchg   %ax,%ax
  10062f:	66 90                	xchg   %ax,%ax
  100631:	66 90                	xchg   %ax,%ax
  100633:	66 90                	xchg   %ax,%ax
  100635:	66 90                	xchg   %ax,%ax
  100637:	66 90                	xchg   %ax,%ax
  100639:	66 90                	xchg   %ax,%ax
  10063b:	66 90                	xchg   %ax,%ax
  10063d:	66 90                	xchg   %ax,%ax
  10063f:	66 90                	xchg   %ax,%ax
  100641:	66 90                	xchg   %ax,%ax
  100643:	66 90                	xchg   %ax,%ax
  100645:	66 90                	xchg   %ax,%ax
  100647:	66 90                	xchg   %ax,%ax
  100649:	66 90                	xchg   %ax,%ax
  10064b:	66 90                	xchg   %ax,%ax
  10064d:	66 90                	xchg   %ax,%ax
  10064f:	66 90                	xchg   %ax,%ax
  100651:	66 90                	xchg   %ax,%ax
  100653:	66 90                	xchg   %ax,%ax
  100655:	66 90                	xchg   %ax,%ax
  100657:	66 90                	xchg   %ax,%ax
  100659:	66 90                	xchg   %ax,%ax
  10065b:	66 90                	xchg   %ax,%ax
  10065d:	66 90                	xchg   %ax,%ax
  10065f:	66 90                	xchg   %ax,%ax
  100661:	66 90                	xchg   %ax,%ax
  100663:	66 90                	xchg   %ax,%ax
  100665:	66 90                	xchg   %ax,%ax
  100667:	66 90                	xchg   %ax,%ax
  100669:	66 90                	xchg   %ax,%ax
  10066b:	66 90                	xchg   %ax,%ax
  10066d:	66 90                	xchg   %ax,%ax
  10066f:	66 90                	xchg   %ax,%ax
  100671:	66 90                	xchg   %ax,%ax
  100673:	66 90                	xchg   %ax,%ax
  100675:	66 90                	xchg   %ax,%ax
  100677:	66 90                	xchg   %ax,%ax
  100679:	66 90                	xchg   %ax,%ax
  10067b:	66 90                	xchg   %ax,%ax
  10067d:	66 90                	xchg   %ax,%ax
  10067f:	66 90                	xchg   %ax,%ax
  100681:	66 90                	xchg   %ax,%ax
  100683:	66 90                	xchg   %ax,%ax
  100685:	66 90                	xchg   %ax,%ax
  100687:	66 90                	xchg   %ax,%ax
  100689:	66 90                	xchg   %ax,%ax
  10068b:	66 90                	xchg   %ax,%ax
  10068d:	66 90                	xchg   %ax,%ax
  10068f:	66 90                	xchg   %ax,%ax
  100691:	66 90                	xchg   %ax,%ax
  100693:	66 90                	xchg   %ax,%ax
  100695:	66 90                	xchg   %ax,%ax
  100697:	66 90                	xchg   %ax,%ax
  100699:	66 90                	xchg   %ax,%ax
  10069b:	66 90                	xchg   %ax,%ax
  10069d:	66 90                	xchg   %ax,%ax
  10069f:	66 90                	xchg   %ax,%ax
  1006a1:	66 90                	xchg   %ax,%ax
  1006a3:	66 90                	xchg   %ax,%ax
  1006a5:	66 90                	xchg   %ax,%ax
  1006a7:	66 90                	xchg   %ax,%ax
  1006a9:	66 90                	xchg   %ax,%ax
  1006ab:	66 90                	xchg   %ax,%ax
  1006ad:	66 90                	xchg   %ax,%ax
  1006af:	66 90                	xchg   %ax,%ax
  1006b1:	66 90                	xchg   %ax,%ax
  1006b3:	66 90                	xchg   %ax,%ax
  1006b5:	66 90                	xchg   %ax,%ax
  1006b7:	66 90                	xchg   %ax,%ax
  1006b9:	66 90                	xchg   %ax,%ax
  1006bb:	66 90                	xchg   %ax,%ax
  1006bd:	66 90                	xchg   %ax,%ax
  1006bf:	66 90                	xchg   %ax,%ax
  1006c1:	66 90                	xchg   %ax,%ax
  1006c3:	66 90                	xchg   %ax,%ax
  1006c5:	66 90                	xchg   %ax,%ax
  1006c7:	66 90                	xchg   %ax,%ax
  1006c9:	66 90                	xchg   %ax,%ax
  1006cb:	66 90                	xchg   %ax,%ax
  1006cd:	66 90                	xchg   %ax,%ax
  1006cf:	66 90                	xchg   %ax,%ax
  1006d1:	66 90                	xchg   %ax,%ax
  1006d3:	66 90                	xchg   %ax,%ax
  1006d5:	66 90                	xchg   %ax,%ax
  1006d7:	66 90                	xchg   %ax,%ax
  1006d9:	66 90                	xchg   %ax,%ax
  1006db:	66 90                	xchg   %ax,%ax
  1006dd:	66 90                	xchg   %ax,%ax
  1006df:	66 90                	xchg   %ax,%ax
  1006e1:	66 90                	xchg   %ax,%ax
  1006e3:	66 90                	xchg   %ax,%ax
  1006e5:	66 90                	xchg   %ax,%ax
  1006e7:	66 90                	xchg   %ax,%ax
  1006e9:	66 90                	xchg   %ax,%ax
  1006eb:	66 90                	xchg   %ax,%ax
  1006ed:	66 90                	xchg   %ax,%ax
  1006ef:	66 90                	xchg   %ax,%ax
  1006f1:	66 90                	xchg   %ax,%ax
  1006f3:	66 90                	xchg   %ax,%ax
  1006f5:	66 90                	xchg   %ax,%ax
  1006f7:	66 90                	xchg   %ax,%ax
  1006f9:	66 90                	xchg   %ax,%ax
  1006fb:	66 90                	xchg   %ax,%ax
  1006fd:	66 90                	xchg   %ax,%ax
  1006ff:	66 90                	xchg   %ax,%ax
  100701:	66 90                	xchg   %ax,%ax
  100703:	66 90                	xchg   %ax,%ax
  100705:	66 90                	xchg   %ax,%ax
  100707:	66 90                	xchg   %ax,%ax
  100709:	66 90                	xchg   %ax,%ax
  10070b:	66 90                	xchg   %ax,%ax
  10070d:	66 90                	xchg   %ax,%ax
  10070f:	66 90                	xchg   %ax,%ax
  100711:	66 90                	xchg   %ax,%ax
  100713:	66 90                	xchg   %ax,%ax
  100715:	66 90                	xchg   %ax,%ax
  100717:	66 90                	xchg   %ax,%ax
  100719:	66 90                	xchg   %ax,%ax
  10071b:	66 90                	xchg   %ax,%ax
  10071d:	66 90                	xchg   %ax,%ax
  10071f:	66 90                	xchg   %ax,%ax
  100721:	66 90                	xchg   %ax,%ax
  100723:	66 90                	xchg   %ax,%ax
  100725:	66 90                	xchg   %ax,%ax
  100727:	66 90                	xchg   %ax,%ax
  100729:	66 90                	xchg   %ax,%ax
  10072b:	66 90                	xchg   %ax,%ax
  10072d:	66 90                	xchg   %ax,%ax
  10072f:	66 90                	xchg   %ax,%ax
  100731:	66 90                	xchg   %ax,%ax
  100733:	66 90                	xchg   %ax,%ax
  100735:	66 90                	xchg   %ax,%ax
  100737:	66 90                	xchg   %ax,%ax
  100739:	66 90                	xchg   %ax,%ax
  10073b:	66 90                	xchg   %ax,%ax
  10073d:	66 90                	xchg   %ax,%ax
  10073f:	66 90                	xchg   %ax,%ax
  100741:	66 90                	xchg   %ax,%ax
  100743:	66 90                	xchg   %ax,%ax
  100745:	66 90                	xchg   %ax,%ax
  100747:	66 90                	xchg   %ax,%ax
  100749:	66 90                	xchg   %ax,%ax
  10074b:	66 90                	xchg   %ax,%ax
  10074d:	66 90                	xchg   %ax,%ax
  10074f:	66 90                	xchg   %ax,%ax
  100751:	66 90                	xchg   %ax,%ax
  100753:	66 90                	xchg   %ax,%ax
  100755:	66 90                	xchg   %ax,%ax
  100757:	66 90                	xchg   %ax,%ax
  100759:	66 90                	xchg   %ax,%ax
  10075b:	66 90                	xchg   %ax,%ax
  10075d:	66 90                	xchg   %ax,%ax
  10075f:	66 90                	xchg   %ax,%ax
  100761:	66 90                	xchg   %ax,%ax
  100763:	66 90                	xchg   %ax,%ax
  100765:	66 90                	xchg   %ax,%ax
  100767:	66 90                	xchg   %ax,%ax
  100769:	66 90                	xchg   %ax,%ax
  10076b:	66 90                	xchg   %ax,%ax
  10076d:	66 90                	xchg   %ax,%ax
  10076f:	66 90                	xchg   %ax,%ax
  100771:	66 90                	xchg   %ax,%ax
  100773:	66 90                	xchg   %ax,%ax
  100775:	66 90                	xchg   %ax,%ax
  100777:	66 90                	xchg   %ax,%ax
  100779:	66 90                	xchg   %ax,%ax
  10077b:	66 90                	xchg   %ax,%ax
  10077d:	66 90                	xchg   %ax,%ax
  10077f:	66 90                	xchg   %ax,%ax
  100781:	66 90                	xchg   %ax,%ax
  100783:	66 90                	xchg   %ax,%ax
  100785:	66 90                	xchg   %ax,%ax
  100787:	66 90                	xchg   %ax,%ax
  100789:	66 90                	xchg   %ax,%ax
  10078b:	66 90                	xchg   %ax,%ax
  10078d:	66 90                	xchg   %ax,%ax
  10078f:	66 90                	xchg   %ax,%ax
  100791:	66 90                	xchg   %ax,%ax
  100793:	66 90                	xchg   %ax,%ax
  100795:	66 90                	xchg   %ax,%ax
  100797:	66 90                	xchg   %ax,%ax
  100799:	66 90                	xchg   %ax,%ax
  10079b:	66 90                	xchg   %ax,%ax
  10079d:	66 90                	xchg   %ax,%ax
  10079f:	66 90                	xchg   %ax,%ax
  1007a1:	66 90                	xchg   %ax,%ax
  1007a3:	66 90                	xchg   %ax,%ax
  1007a5:	66 90                	xchg   %ax,%ax
  1007a7:	66 90                	xchg   %ax,%ax
  1007a9:	66 90                	xchg   %ax,%ax
  1007ab:	66 90                	xchg   %ax,%ax
  1007ad:	66 90                	xchg   %ax,%ax
  1007af:	66 90                	xchg   %ax,%ax
  1007b1:	66 90                	xchg   %ax,%ax
  1007b3:	66 90                	xchg   %ax,%ax
  1007b5:	66 90                	xchg   %ax,%ax
  1007b7:	66 90                	xchg   %ax,%ax
  1007b9:	66 90                	xchg   %ax,%ax
  1007bb:	66 90                	xchg   %ax,%ax
  1007bd:	66 90                	xchg   %ax,%ax
  1007bf:	66 90                	xchg   %ax,%ax
  1007c1:	66 90                	xchg   %ax,%ax
  1007c3:	66 90                	xchg   %ax,%ax
  1007c5:	66 90                	xchg   %ax,%ax
  1007c7:	66 90                	xchg   %ax,%ax
  1007c9:	66 90                	xchg   %ax,%ax
  1007cb:	66 90                	xchg   %ax,%ax
  1007cd:	66 90                	xchg   %ax,%ax
  1007cf:	66 90                	xchg   %ax,%ax
  1007d1:	66 90                	xchg   %ax,%ax
  1007d3:	66 90                	xchg   %ax,%ax
  1007d5:	66 90                	xchg   %ax,%ax
  1007d7:	66 90                	xchg   %ax,%ax
  1007d9:	66 90                	xchg   %ax,%ax
  1007db:	66 90                	xchg   %ax,%ax
  1007dd:	66 90                	xchg   %ax,%ax
  1007df:	66 90                	xchg   %ax,%ax
  1007e1:	66 90                	xchg   %ax,%ax
  1007e3:	66 90                	xchg   %ax,%ax
  1007e5:	66 90                	xchg   %ax,%ax
  1007e7:	66 90                	xchg   %ax,%ax
  1007e9:	66 90                	xchg   %ax,%ax
  1007eb:	66 90                	xchg   %ax,%ax
  1007ed:	66 90                	xchg   %ax,%ax
  1007ef:	66 90                	xchg   %ax,%ax
  1007f1:	66 90                	xchg   %ax,%ax
  1007f3:	66 90                	xchg   %ax,%ax
  1007f5:	66 90                	xchg   %ax,%ax
  1007f7:	66 90                	xchg   %ax,%ax
  1007f9:	66 90                	xchg   %ax,%ax
  1007fb:	66 90                	xchg   %ax,%ax
  1007fd:	66 90                	xchg   %ax,%ax
  1007ff:	66 90                	xchg   %ax,%ax
  100801:	66 90                	xchg   %ax,%ax
  100803:	66 90                	xchg   %ax,%ax
  100805:	66 90                	xchg   %ax,%ax
  100807:	66 90                	xchg   %ax,%ax
  100809:	66 90                	xchg   %ax,%ax
  10080b:	66 90                	xchg   %ax,%ax
  10080d:	66 90                	xchg   %ax,%ax
  10080f:	66 90                	xchg   %ax,%ax
  100811:	66 90                	xchg   %ax,%ax
  100813:	66 90                	xchg   %ax,%ax
  100815:	66 90                	xchg   %ax,%ax
  100817:	66 90                	xchg   %ax,%ax
  100819:	66 90                	xchg   %ax,%ax
  10081b:	66 90                	xchg   %ax,%ax
  10081d:	66 90                	xchg   %ax,%ax
  10081f:	66 90                	xchg   %ax,%ax
  100821:	66 90                	xchg   %ax,%ax
  100823:	66 90                	xchg   %ax,%ax
  100825:	66 90                	xchg   %ax,%ax
  100827:	66 90                	xchg   %ax,%ax
  100829:	66 90                	xchg   %ax,%ax
  10082b:	66 90                	xchg   %ax,%ax
  10082d:	66 90                	xchg   %ax,%ax
  10082f:	66 90                	xchg   %ax,%ax
  100831:	66 90                	xchg   %ax,%ax
  100833:	66 90                	xchg   %ax,%ax
  100835:	66 90                	xchg   %ax,%ax
  100837:	66 90                	xchg   %ax,%ax
  100839:	66 90                	xchg   %ax,%ax
  10083b:	66 90                	xchg   %ax,%ax
  10083d:	66 90                	xchg   %ax,%ax
  10083f:	66 90                	xchg   %ax,%ax
  100841:	66 90                	xchg   %ax,%ax
  100843:	66 90                	xchg   %ax,%ax
  100845:	66 90                	xchg   %ax,%ax
  100847:	66 90                	xchg   %ax,%ax
  100849:	66 90                	xchg   %ax,%ax
  10084b:	66 90                	xchg   %ax,%ax
  10084d:	66 90                	xchg   %ax,%ax
  10084f:	66 90                	xchg   %ax,%ax
  100851:	66 90                	xchg   %ax,%ax
  100853:	66 90                	xchg   %ax,%ax
  100855:	66 90                	xchg   %ax,%ax
  100857:	66 90                	xchg   %ax,%ax
  100859:	66 90                	xchg   %ax,%ax
  10085b:	66 90                	xchg   %ax,%ax
  10085d:	66 90                	xchg   %ax,%ax
  10085f:	66 90                	xchg   %ax,%ax
  100861:	66 90                	xchg   %ax,%ax
  100863:	66 90                	xchg   %ax,%ax
  100865:	66 90                	xchg   %ax,%ax
  100867:	66 90                	xchg   %ax,%ax
  100869:	66 90                	xchg   %ax,%ax
  10086b:	66 90                	xchg   %ax,%ax
  10086d:	66 90                	xchg   %ax,%ax
  10086f:	66 90                	xchg   %ax,%ax
  100871:	66 90                	xchg   %ax,%ax
  100873:	66 90                	xchg   %ax,%ax
  100875:	66 90                	xchg   %ax,%ax
  100877:	66 90                	xchg   %ax,%ax
  100879:	66 90                	xchg   %ax,%ax
  10087b:	66 90                	xchg   %ax,%ax
  10087d:	66 90                	xchg   %ax,%ax
  10087f:	66 90                	xchg   %ax,%ax
  100881:	66 90                	xchg   %ax,%ax
  100883:	66 90                	xchg   %ax,%ax
  100885:	66 90                	xchg   %ax,%ax
  100887:	66 90                	xchg   %ax,%ax
  100889:	66 90                	xchg   %ax,%ax
  10088b:	66 90                	xchg   %ax,%ax
  10088d:	66 90                	xchg   %ax,%ax
  10088f:	66 90                	xchg   %ax,%ax
  100891:	66 90                	xchg   %ax,%ax
  100893:	66 90                	xchg   %ax,%ax
  100895:	66 90                	xchg   %ax,%ax
  100897:	66 90                	xchg   %ax,%ax
  100899:	66 90                	xchg   %ax,%ax
  10089b:	66 90                	xchg   %ax,%ax
  10089d:	66 90                	xchg   %ax,%ax
  10089f:	66 90                	xchg   %ax,%ax
  1008a1:	66 90                	xchg   %ax,%ax
  1008a3:	66 90                	xchg   %ax,%ax
  1008a5:	66 90                	xchg   %ax,%ax
  1008a7:	66 90                	xchg   %ax,%ax
  1008a9:	66 90                	xchg   %ax,%ax
  1008ab:	66 90                	xchg   %ax,%ax
  1008ad:	66 90                	xchg   %ax,%ax
  1008af:	66 90                	xchg   %ax,%ax
  1008b1:	66 90                	xchg   %ax,%ax
  1008b3:	66 90                	xchg   %ax,%ax
  1008b5:	66 90                	xchg   %ax,%ax
  1008b7:	66 90                	xchg   %ax,%ax
  1008b9:	66 90                	xchg   %ax,%ax
  1008bb:	66 90                	xchg   %ax,%ax
  1008bd:	66 90                	xchg   %ax,%ax
  1008bf:	66 90                	xchg   %ax,%ax
  1008c1:	66 90                	xchg   %ax,%ax
  1008c3:	66 90                	xchg   %ax,%ax
  1008c5:	66 90                	xchg   %ax,%ax
  1008c7:	66 90                	xchg   %ax,%ax
  1008c9:	66 90                	xchg   %ax,%ax
  1008cb:	66 90                	xchg   %ax,%ax
  1008cd:	66 90                	xchg   %ax,%ax
  1008cf:	66 90                	xchg   %ax,%ax
  1008d1:	66 90                	xchg   %ax,%ax
  1008d3:	66 90                	xchg   %ax,%ax
  1008d5:	66 90                	xchg   %ax,%ax
  1008d7:	66 90                	xchg   %ax,%ax
  1008d9:	66 90                	xchg   %ax,%ax
  1008db:	66 90                	xchg   %ax,%ax
  1008dd:	66 90                	xchg   %ax,%ax
  1008df:	66 90                	xchg   %ax,%ax
  1008e1:	66 90                	xchg   %ax,%ax
  1008e3:	66 90                	xchg   %ax,%ax
  1008e5:	66 90                	xchg   %ax,%ax
  1008e7:	66 90                	xchg   %ax,%ax
  1008e9:	66 90                	xchg   %ax,%ax
  1008eb:	66 90                	xchg   %ax,%ax
  1008ed:	66 90                	xchg   %ax,%ax
  1008ef:	66 90                	xchg   %ax,%ax
  1008f1:	66 90                	xchg   %ax,%ax
  1008f3:	66 90                	xchg   %ax,%ax
  1008f5:	66 90                	xchg   %ax,%ax
  1008f7:	66 90                	xchg   %ax,%ax
  1008f9:	66 90                	xchg   %ax,%ax
  1008fb:	66 90                	xchg   %ax,%ax
  1008fd:	66 90                	xchg   %ax,%ax
  1008ff:	66 90                	xchg   %ax,%ax
  100901:	66 90                	xchg   %ax,%ax
  100903:	66 90                	xchg   %ax,%ax
  100905:	66 90                	xchg   %ax,%ax
  100907:	66 90                	xchg   %ax,%ax
  100909:	66 90                	xchg   %ax,%ax
  10090b:	66 90                	xchg   %ax,%ax
  10090d:	66 90                	xchg   %ax,%ax
  10090f:	66 90                	xchg   %ax,%ax
  100911:	66 90                	xchg   %ax,%ax
  100913:	66 90                	xchg   %ax,%ax
  100915:	66 90                	xchg   %ax,%ax
  100917:	66 90                	xchg   %ax,%ax
  100919:	66 90                	xchg   %ax,%ax
  10091b:	66 90                	xchg   %ax,%ax
  10091d:	66 90                	xchg   %ax,%ax
  10091f:	66 90                	xchg   %ax,%ax
  100921:	66 90                	xchg   %ax,%ax
  100923:	66 90                	xchg   %ax,%ax
  100925:	66 90                	xchg   %ax,%ax
  100927:	66 90                	xchg   %ax,%ax
  100929:	66 90                	xchg   %ax,%ax
  10092b:	66 90                	xchg   %ax,%ax
  10092d:	66 90                	xchg   %ax,%ax
  10092f:	66 90                	xchg   %ax,%ax
  100931:	66 90                	xchg   %ax,%ax
  100933:	66 90                	xchg   %ax,%ax
  100935:	66 90                	xchg   %ax,%ax
  100937:	66 90                	xchg   %ax,%ax
  100939:	66 90                	xchg   %ax,%ax
  10093b:	66 90                	xchg   %ax,%ax
  10093d:	66 90                	xchg   %ax,%ax
  10093f:	66 90                	xchg   %ax,%ax
  100941:	66 90                	xchg   %ax,%ax
  100943:	66 90                	xchg   %ax,%ax
  100945:	66 90                	xchg   %ax,%ax
  100947:	66 90                	xchg   %ax,%ax
  100949:	66 90                	xchg   %ax,%ax
  10094b:	66 90                	xchg   %ax,%ax
  10094d:	66 90                	xchg   %ax,%ax
  10094f:	66 90                	xchg   %ax,%ax
  100951:	66 90                	xchg   %ax,%ax
  100953:	66 90                	xchg   %ax,%ax
  100955:	66 90                	xchg   %ax,%ax
  100957:	66 90                	xchg   %ax,%ax
  100959:	66 90                	xchg   %ax,%ax
  10095b:	66 90                	xchg   %ax,%ax
  10095d:	66 90                	xchg   %ax,%ax
  10095f:	66 90                	xchg   %ax,%ax
  100961:	66 90                	xchg   %ax,%ax
  100963:	66 90                	xchg   %ax,%ax
  100965:	66 90                	xchg   %ax,%ax
  100967:	66 90                	xchg   %ax,%ax
  100969:	66 90                	xchg   %ax,%ax
  10096b:	66 90                	xchg   %ax,%ax
  10096d:	66 90                	xchg   %ax,%ax
  10096f:	66 90                	xchg   %ax,%ax
  100971:	66 90                	xchg   %ax,%ax
  100973:	66 90                	xchg   %ax,%ax
  100975:	66 90                	xchg   %ax,%ax
  100977:	66 90                	xchg   %ax,%ax
  100979:	66 90                	xchg   %ax,%ax
  10097b:	66 90                	xchg   %ax,%ax
  10097d:	66 90                	xchg   %ax,%ax
  10097f:	66 90                	xchg   %ax,%ax
  100981:	66 90                	xchg   %ax,%ax
  100983:	66 90                	xchg   %ax,%ax
  100985:	66 90                	xchg   %ax,%ax
  100987:	66 90                	xchg   %ax,%ax
  100989:	66 90                	xchg   %ax,%ax
  10098b:	66 90                	xchg   %ax,%ax
  10098d:	66 90                	xchg   %ax,%ax
  10098f:	66 90                	xchg   %ax,%ax
  100991:	66 90                	xchg   %ax,%ax
  100993:	66 90                	xchg   %ax,%ax
  100995:	66 90                	xchg   %ax,%ax
  100997:	66 90                	xchg   %ax,%ax
  100999:	66 90                	xchg   %ax,%ax
  10099b:	66 90                	xchg   %ax,%ax
  10099d:	66 90                	xchg   %ax,%ax
  10099f:	66 90                	xchg   %ax,%ax
  1009a1:	66 90                	xchg   %ax,%ax
  1009a3:	66 90                	xchg   %ax,%ax
  1009a5:	66 90                	xchg   %ax,%ax
  1009a7:	66 90                	xchg   %ax,%ax
  1009a9:	66 90                	xchg   %ax,%ax
  1009ab:	66 90                	xchg   %ax,%ax
  1009ad:	66 90                	xchg   %ax,%ax
  1009af:	66 90                	xchg   %ax,%ax
  1009b1:	66 90                	xchg   %ax,%ax
  1009b3:	66 90                	xchg   %ax,%ax
  1009b5:	66 90                	xchg   %ax,%ax
  1009b7:	66 90                	xchg   %ax,%ax
  1009b9:	66 90                	xchg   %ax,%ax
  1009bb:	66 90                	xchg   %ax,%ax
  1009bd:	66 90                	xchg   %ax,%ax
  1009bf:	66 90                	xchg   %ax,%ax
  1009c1:	66 90                	xchg   %ax,%ax
  1009c3:	66 90                	xchg   %ax,%ax
  1009c5:	66 90                	xchg   %ax,%ax
  1009c7:	66 90                	xchg   %ax,%ax
  1009c9:	66 90                	xchg   %ax,%ax
  1009cb:	66 90                	xchg   %ax,%ax
  1009cd:	66 90                	xchg   %ax,%ax
  1009cf:	66 90                	xchg   %ax,%ax
  1009d1:	66 90                	xchg   %ax,%ax
  1009d3:	66 90                	xchg   %ax,%ax
  1009d5:	66 90                	xchg   %ax,%ax
  1009d7:	66 90                	xchg   %ax,%ax
  1009d9:	66 90                	xchg   %ax,%ax
  1009db:	66 90                	xchg   %ax,%ax
  1009dd:	66 90                	xchg   %ax,%ax
  1009df:	66 90                	xchg   %ax,%ax
  1009e1:	66 90                	xchg   %ax,%ax
  1009e3:	66 90                	xchg   %ax,%ax
  1009e5:	66 90                	xchg   %ax,%ax
  1009e7:	66 90                	xchg   %ax,%ax
  1009e9:	66 90                	xchg   %ax,%ax
  1009eb:	66 90                	xchg   %ax,%ax
  1009ed:	66 90                	xchg   %ax,%ax
  1009ef:	66 90                	xchg   %ax,%ax
  1009f1:	66 90                	xchg   %ax,%ax
  1009f3:	66 90                	xchg   %ax,%ax
  1009f5:	66 90                	xchg   %ax,%ax
  1009f7:	66 90                	xchg   %ax,%ax
  1009f9:	66 90                	xchg   %ax,%ax
  1009fb:	66 90                	xchg   %ax,%ax
  1009fd:	66 90                	xchg   %ax,%ax
  1009ff:	66 90                	xchg   %ax,%ax
  100a01:	66 90                	xchg   %ax,%ax
  100a03:	66 90                	xchg   %ax,%ax
  100a05:	66 90                	xchg   %ax,%ax
  100a07:	66 90                	xchg   %ax,%ax
  100a09:	66 90                	xchg   %ax,%ax
  100a0b:	66 90                	xchg   %ax,%ax
  100a0d:	66 90                	xchg   %ax,%ax
  100a0f:	66 90                	xchg   %ax,%ax
  100a11:	66 90                	xchg   %ax,%ax
  100a13:	66 90                	xchg   %ax,%ax
  100a15:	66 90                	xchg   %ax,%ax
  100a17:	66 90                	xchg   %ax,%ax
  100a19:	66 90                	xchg   %ax,%ax
  100a1b:	66 90                	xchg   %ax,%ax
  100a1d:	66 90                	xchg   %ax,%ax
  100a1f:	66 90                	xchg   %ax,%ax
  100a21:	66 90                	xchg   %ax,%ax
  100a23:	66 90                	xchg   %ax,%ax
  100a25:	66 90                	xchg   %ax,%ax
  100a27:	66 90                	xchg   %ax,%ax
  100a29:	66 90                	xchg   %ax,%ax
  100a2b:	66 90                	xchg   %ax,%ax
  100a2d:	66 90                	xchg   %ax,%ax
  100a2f:	66 90                	xchg   %ax,%ax
  100a31:	66 90                	xchg   %ax,%ax
  100a33:	66 90                	xchg   %ax,%ax
  100a35:	66 90                	xchg   %ax,%ax
  100a37:	66 90                	xchg   %ax,%ax
  100a39:	66 90                	xchg   %ax,%ax
  100a3b:	66 90                	xchg   %ax,%ax
  100a3d:	66 90                	xchg   %ax,%ax
  100a3f:	66 90                	xchg   %ax,%ax
  100a41:	66 90                	xchg   %ax,%ax
  100a43:	66 90                	xchg   %ax,%ax
  100a45:	66 90                	xchg   %ax,%ax
  100a47:	66 90                	xchg   %ax,%ax
  100a49:	66 90                	xchg   %ax,%ax
  100a4b:	66 90                	xchg   %ax,%ax
  100a4d:	66 90                	xchg   %ax,%ax
  100a4f:	66 90                	xchg   %ax,%ax
  100a51:	66 90                	xchg   %ax,%ax
  100a53:	66 90                	xchg   %ax,%ax
  100a55:	66 90                	xchg   %ax,%ax
  100a57:	66 90                	xchg   %ax,%ax
  100a59:	66 90                	xchg   %ax,%ax
  100a5b:	66 90                	xchg   %ax,%ax
  100a5d:	66 90                	xchg   %ax,%ax
  100a5f:	66 90                	xchg   %ax,%ax
  100a61:	66 90                	xchg   %ax,%ax
  100a63:	66 90                	xchg   %ax,%ax
  100a65:	66 90                	xchg   %ax,%ax
  100a67:	66 90                	xchg   %ax,%ax
  100a69:	66 90                	xchg   %ax,%ax
  100a6b:	66 90                	xchg   %ax,%ax
  100a6d:	66 90                	xchg   %ax,%ax
  100a6f:	66 90                	xchg   %ax,%ax
  100a71:	66 90                	xchg   %ax,%ax
  100a73:	66 90                	xchg   %ax,%ax
  100a75:	66 90                	xchg   %ax,%ax
  100a77:	66 90                	xchg   %ax,%ax
  100a79:	66 90                	xchg   %ax,%ax
  100a7b:	66 90                	xchg   %ax,%ax
  100a7d:	66 90                	xchg   %ax,%ax
  100a7f:	66 90                	xchg   %ax,%ax
  100a81:	66 90                	xchg   %ax,%ax
  100a83:	66 90                	xchg   %ax,%ax
  100a85:	66 90                	xchg   %ax,%ax
  100a87:	66 90                	xchg   %ax,%ax
  100a89:	66 90                	xchg   %ax,%ax
  100a8b:	66 90                	xchg   %ax,%ax
  100a8d:	66 90                	xchg   %ax,%ax
  100a8f:	66 90                	xchg   %ax,%ax
  100a91:	66 90                	xchg   %ax,%ax
  100a93:	66 90                	xchg   %ax,%ax
  100a95:	66 90                	xchg   %ax,%ax
  100a97:	66 90                	xchg   %ax,%ax
  100a99:	66 90                	xchg   %ax,%ax
  100a9b:	66 90                	xchg   %ax,%ax
  100a9d:	66 90                	xchg   %ax,%ax
  100a9f:	66 90                	xchg   %ax,%ax
  100aa1:	66 90                	xchg   %ax,%ax
  100aa3:	66 90                	xchg   %ax,%ax
  100aa5:	66 90                	xchg   %ax,%ax
  100aa7:	66 90                	xchg   %ax,%ax
  100aa9:	66 90                	xchg   %ax,%ax
  100aab:	66 90                	xchg   %ax,%ax
  100aad:	66 90                	xchg   %ax,%ax
  100aaf:	66 90                	xchg   %ax,%ax
  100ab1:	66 90                	xchg   %ax,%ax
  100ab3:	66 90                	xchg   %ax,%ax
  100ab5:	66 90                	xchg   %ax,%ax
  100ab7:	66 90                	xchg   %ax,%ax
  100ab9:	66 90                	xchg   %ax,%ax
  100abb:	66 90                	xchg   %ax,%ax
  100abd:	66 90                	xchg   %ax,%ax
  100abf:	66 90                	xchg   %ax,%ax
  100ac1:	66 90                	xchg   %ax,%ax
  100ac3:	66 90                	xchg   %ax,%ax
  100ac5:	66 90                	xchg   %ax,%ax
  100ac7:	66 90                	xchg   %ax,%ax
  100ac9:	66 90                	xchg   %ax,%ax
  100acb:	66 90                	xchg   %ax,%ax
  100acd:	66 90                	xchg   %ax,%ax
  100acf:	66 90                	xchg   %ax,%ax
  100ad1:	66 90                	xchg   %ax,%ax
  100ad3:	66 90                	xchg   %ax,%ax
  100ad5:	66 90                	xchg   %ax,%ax
  100ad7:	66 90                	xchg   %ax,%ax
  100ad9:	66 90                	xchg   %ax,%ax
  100adb:	66 90                	xchg   %ax,%ax
  100add:	66 90                	xchg   %ax,%ax
  100adf:	66 90                	xchg   %ax,%ax
  100ae1:	66 90                	xchg   %ax,%ax
  100ae3:	66 90                	xchg   %ax,%ax
  100ae5:	66 90                	xchg   %ax,%ax
  100ae7:	66 90                	xchg   %ax,%ax
  100ae9:	66 90                	xchg   %ax,%ax
  100aeb:	66 90                	xchg   %ax,%ax
  100aed:	66 90                	xchg   %ax,%ax
  100aef:	66 90                	xchg   %ax,%ax
  100af1:	66 90                	xchg   %ax,%ax
  100af3:	66 90                	xchg   %ax,%ax
  100af5:	66 90                	xchg   %ax,%ax
  100af7:	66 90                	xchg   %ax,%ax
  100af9:	66 90                	xchg   %ax,%ax
  100afb:	66 90                	xchg   %ax,%ax
  100afd:	66 90                	xchg   %ax,%ax
  100aff:	66 90                	xchg   %ax,%ax
  100b01:	66 90                	xchg   %ax,%ax
  100b03:	66 90                	xchg   %ax,%ax
  100b05:	66 90                	xchg   %ax,%ax
  100b07:	66 90                	xchg   %ax,%ax
  100b09:	66 90                	xchg   %ax,%ax
  100b0b:	66 90                	xchg   %ax,%ax
  100b0d:	66 90                	xchg   %ax,%ax
  100b0f:	66 90                	xchg   %ax,%ax
  100b11:	66 90                	xchg   %ax,%ax
  100b13:	66 90                	xchg   %ax,%ax
  100b15:	66 90                	xchg   %ax,%ax
  100b17:	66 90                	xchg   %ax,%ax
  100b19:	66 90                	xchg   %ax,%ax
  100b1b:	66 90                	xchg   %ax,%ax
  100b1d:	66 90                	xchg   %ax,%ax
  100b1f:	66 90                	xchg   %ax,%ax
  100b21:	66 90                	xchg   %ax,%ax
  100b23:	66 90                	xchg   %ax,%ax
  100b25:	66 90                	xchg   %ax,%ax
  100b27:	66 90                	xchg   %ax,%ax
  100b29:	66 90                	xchg   %ax,%ax
  100b2b:	66 90                	xchg   %ax,%ax
  100b2d:	66 90                	xchg   %ax,%ax
  100b2f:	66 90                	xchg   %ax,%ax
  100b31:	66 90                	xchg   %ax,%ax
  100b33:	66 90                	xchg   %ax,%ax
  100b35:	66 90                	xchg   %ax,%ax
  100b37:	66 90                	xchg   %ax,%ax
  100b39:	66 90                	xchg   %ax,%ax
  100b3b:	66 90                	xchg   %ax,%ax
  100b3d:	66 90                	xchg   %ax,%ax
  100b3f:	66 90                	xchg   %ax,%ax
  100b41:	66 90                	xchg   %ax,%ax
  100b43:	66 90                	xchg   %ax,%ax
  100b45:	66 90                	xchg   %ax,%ax
  100b47:	66 90                	xchg   %ax,%ax
  100b49:	66 90                	xchg   %ax,%ax
  100b4b:	66 90                	xchg   %ax,%ax
  100b4d:	66 90                	xchg   %ax,%ax
  100b4f:	66 90                	xchg   %ax,%ax
  100b51:	66 90                	xchg   %ax,%ax
  100b53:	66 90                	xchg   %ax,%ax
  100b55:	66 90                	xchg   %ax,%ax
  100b57:	66 90                	xchg   %ax,%ax
  100b59:	66 90                	xchg   %ax,%ax
  100b5b:	66 90                	xchg   %ax,%ax
  100b5d:	66 90                	xchg   %ax,%ax
  100b5f:	66 90                	xchg   %ax,%ax
  100b61:	66 90                	xchg   %ax,%ax
  100b63:	66 90                	xchg   %ax,%ax
  100b65:	66 90                	xchg   %ax,%ax
  100b67:	66 90                	xchg   %ax,%ax
  100b69:	66 90                	xchg   %ax,%ax
  100b6b:	66 90                	xchg   %ax,%ax
  100b6d:	66 90                	xchg   %ax,%ax
  100b6f:	66 90                	xchg   %ax,%ax
  100b71:	66 90                	xchg   %ax,%ax
  100b73:	66 90                	xchg   %ax,%ax
  100b75:	66 90                	xchg   %ax,%ax
  100b77:	66 90                	xchg   %ax,%ax
  100b79:	66 90                	xchg   %ax,%ax
  100b7b:	66 90                	xchg   %ax,%ax
  100b7d:	66 90                	xchg   %ax,%ax
  100b7f:	66 90                	xchg   %ax,%ax
  100b81:	66 90                	xchg   %ax,%ax
  100b83:	66 90                	xchg   %ax,%ax
  100b85:	66 90                	xchg   %ax,%ax
  100b87:	66 90                	xchg   %ax,%ax
  100b89:	66 90                	xchg   %ax,%ax
  100b8b:	66 90                	xchg   %ax,%ax
  100b8d:	66 90                	xchg   %ax,%ax
  100b8f:	66 90                	xchg   %ax,%ax
  100b91:	66 90                	xchg   %ax,%ax
  100b93:	66 90                	xchg   %ax,%ax
  100b95:	66 90                	xchg   %ax,%ax
  100b97:	66 90                	xchg   %ax,%ax
  100b99:	66 90                	xchg   %ax,%ax
  100b9b:	66 90                	xchg   %ax,%ax
  100b9d:	66 90                	xchg   %ax,%ax
  100b9f:	66 90                	xchg   %ax,%ax
  100ba1:	66 90                	xchg   %ax,%ax
  100ba3:	66 90                	xchg   %ax,%ax
  100ba5:	66 90                	xchg   %ax,%ax
  100ba7:	66 90                	xchg   %ax,%ax
  100ba9:	66 90                	xchg   %ax,%ax
  100bab:	66 90                	xchg   %ax,%ax
  100bad:	66 90                	xchg   %ax,%ax
  100baf:	66 90                	xchg   %ax,%ax
  100bb1:	66 90                	xchg   %ax,%ax
  100bb3:	66 90                	xchg   %ax,%ax
  100bb5:	66 90                	xchg   %ax,%ax
  100bb7:	66 90                	xchg   %ax,%ax
  100bb9:	66 90                	xchg   %ax,%ax
  100bbb:	66 90                	xchg   %ax,%ax
  100bbd:	66 90                	xchg   %ax,%ax
  100bbf:	66 90                	xchg   %ax,%ax
  100bc1:	66 90                	xchg   %ax,%ax
  100bc3:	66 90                	xchg   %ax,%ax
  100bc5:	66 90                	xchg   %ax,%ax
  100bc7:	66 90                	xchg   %ax,%ax
  100bc9:	66 90                	xchg   %ax,%ax
  100bcb:	66 90                	xchg   %ax,%ax
  100bcd:	66 90                	xchg   %ax,%ax
  100bcf:	66 90                	xchg   %ax,%ax
  100bd1:	66 90                	xchg   %ax,%ax
  100bd3:	66 90                	xchg   %ax,%ax
  100bd5:	66 90                	xchg   %ax,%ax
  100bd7:	66 90                	xchg   %ax,%ax
  100bd9:	66 90                	xchg   %ax,%ax
  100bdb:	66 90                	xchg   %ax,%ax
  100bdd:	66 90                	xchg   %ax,%ax
  100bdf:	66 90                	xchg   %ax,%ax
  100be1:	66 90                	xchg   %ax,%ax
  100be3:	66 90                	xchg   %ax,%ax
  100be5:	66 90                	xchg   %ax,%ax
  100be7:	66 90                	xchg   %ax,%ax
  100be9:	66 90                	xchg   %ax,%ax
  100beb:	66 90                	xchg   %ax,%ax
  100bed:	66 90                	xchg   %ax,%ax
  100bef:	66 90                	xchg   %ax,%ax
  100bf1:	66 90                	xchg   %ax,%ax
  100bf3:	66 90                	xchg   %ax,%ax
  100bf5:	66 90                	xchg   %ax,%ax
  100bf7:	66 90                	xchg   %ax,%ax
  100bf9:	66 90                	xchg   %ax,%ax
  100bfb:	66 90                	xchg   %ax,%ax
  100bfd:	66 90                	xchg   %ax,%ax
  100bff:	66 90                	xchg   %ax,%ax
  100c01:	66 90                	xchg   %ax,%ax
  100c03:	66 90                	xchg   %ax,%ax
  100c05:	66 90                	xchg   %ax,%ax
  100c07:	66 90                	xchg   %ax,%ax
  100c09:	66 90                	xchg   %ax,%ax
  100c0b:	66 90                	xchg   %ax,%ax
  100c0d:	66 90                	xchg   %ax,%ax
  100c0f:	66 90                	xchg   %ax,%ax
  100c11:	66 90                	xchg   %ax,%ax
  100c13:	66 90                	xchg   %ax,%ax
  100c15:	66 90                	xchg   %ax,%ax
  100c17:	66 90                	xchg   %ax,%ax
  100c19:	66 90                	xchg   %ax,%ax
  100c1b:	66 90                	xchg   %ax,%ax
  100c1d:	66 90                	xchg   %ax,%ax
  100c1f:	66 90                	xchg   %ax,%ax
  100c21:	66 90                	xchg   %ax,%ax
  100c23:	66 90                	xchg   %ax,%ax
  100c25:	66 90                	xchg   %ax,%ax
  100c27:	66 90                	xchg   %ax,%ax
  100c29:	66 90                	xchg   %ax,%ax
  100c2b:	66 90                	xchg   %ax,%ax
  100c2d:	66 90                	xchg   %ax,%ax
  100c2f:	66 90                	xchg   %ax,%ax
  100c31:	66 90                	xchg   %ax,%ax
  100c33:	66 90                	xchg   %ax,%ax
  100c35:	66 90                	xchg   %ax,%ax
  100c37:	66 90                	xchg   %ax,%ax
  100c39:	66 90                	xchg   %ax,%ax
  100c3b:	66 90                	xchg   %ax,%ax
  100c3d:	66 90                	xchg   %ax,%ax
  100c3f:	66 90                	xchg   %ax,%ax
  100c41:	66 90                	xchg   %ax,%ax
  100c43:	66 90                	xchg   %ax,%ax
  100c45:	66 90                	xchg   %ax,%ax
  100c47:	66 90                	xchg   %ax,%ax
  100c49:	66 90                	xchg   %ax,%ax
  100c4b:	66 90                	xchg   %ax,%ax
  100c4d:	66 90                	xchg   %ax,%ax
  100c4f:	66 90                	xchg   %ax,%ax
  100c51:	66 90                	xchg   %ax,%ax
  100c53:	66 90                	xchg   %ax,%ax
  100c55:	66 90                	xchg   %ax,%ax
  100c57:	66 90                	xchg   %ax,%ax
  100c59:	66 90                	xchg   %ax,%ax
  100c5b:	66 90                	xchg   %ax,%ax
  100c5d:	66 90                	xchg   %ax,%ax
  100c5f:	66 90                	xchg   %ax,%ax
  100c61:	66 90                	xchg   %ax,%ax
  100c63:	66 90                	xchg   %ax,%ax
  100c65:	66 90                	xchg   %ax,%ax
  100c67:	66 90                	xchg   %ax,%ax
  100c69:	66 90                	xchg   %ax,%ax
  100c6b:	66 90                	xchg   %ax,%ax
  100c6d:	66 90                	xchg   %ax,%ax
  100c6f:	66 90                	xchg   %ax,%ax
  100c71:	66 90                	xchg   %ax,%ax
  100c73:	66 90                	xchg   %ax,%ax
  100c75:	66 90                	xchg   %ax,%ax
  100c77:	66 90                	xchg   %ax,%ax
  100c79:	66 90                	xchg   %ax,%ax
  100c7b:	66 90                	xchg   %ax,%ax
  100c7d:	66 90                	xchg   %ax,%ax
  100c7f:	66 90                	xchg   %ax,%ax
  100c81:	66 90                	xchg   %ax,%ax
  100c83:	66 90                	xchg   %ax,%ax
  100c85:	66 90                	xchg   %ax,%ax
  100c87:	66 90                	xchg   %ax,%ax
  100c89:	66 90                	xchg   %ax,%ax
  100c8b:	66 90                	xchg   %ax,%ax
  100c8d:	66 90                	xchg   %ax,%ax
  100c8f:	66 90                	xchg   %ax,%ax
  100c91:	66 90                	xchg   %ax,%ax
  100c93:	66 90                	xchg   %ax,%ax
  100c95:	66 90                	xchg   %ax,%ax
  100c97:	66 90                	xchg   %ax,%ax
  100c99:	66 90                	xchg   %ax,%ax
  100c9b:	66 90                	xchg   %ax,%ax
  100c9d:	66 90                	xchg   %ax,%ax
  100c9f:	66 90                	xchg   %ax,%ax
  100ca1:	66 90                	xchg   %ax,%ax
  100ca3:	66 90                	xchg   %ax,%ax
  100ca5:	66 90                	xchg   %ax,%ax
  100ca7:	66 90                	xchg   %ax,%ax
  100ca9:	66 90                	xchg   %ax,%ax
  100cab:	66 90                	xchg   %ax,%ax
  100cad:	66 90                	xchg   %ax,%ax
  100caf:	66 90                	xchg   %ax,%ax
  100cb1:	66 90                	xchg   %ax,%ax
  100cb3:	66 90                	xchg   %ax,%ax
  100cb5:	66 90                	xchg   %ax,%ax
  100cb7:	66 90                	xchg   %ax,%ax
  100cb9:	66 90                	xchg   %ax,%ax
  100cbb:	66 90                	xchg   %ax,%ax
  100cbd:	66 90                	xchg   %ax,%ax
  100cbf:	66 90                	xchg   %ax,%ax
  100cc1:	66 90                	xchg   %ax,%ax
  100cc3:	66 90                	xchg   %ax,%ax
  100cc5:	66 90                	xchg   %ax,%ax
  100cc7:	66 90                	xchg   %ax,%ax
  100cc9:	66 90                	xchg   %ax,%ax
  100ccb:	66 90                	xchg   %ax,%ax
  100ccd:	66 90                	xchg   %ax,%ax
  100ccf:	66 90                	xchg   %ax,%ax
  100cd1:	66 90                	xchg   %ax,%ax
  100cd3:	66 90                	xchg   %ax,%ax
  100cd5:	66 90                	xchg   %ax,%ax
  100cd7:	66 90                	xchg   %ax,%ax
  100cd9:	66 90                	xchg   %ax,%ax
  100cdb:	66 90                	xchg   %ax,%ax
  100cdd:	66 90                	xchg   %ax,%ax
  100cdf:	66 90                	xchg   %ax,%ax
  100ce1:	66 90                	xchg   %ax,%ax
  100ce3:	66 90                	xchg   %ax,%ax
  100ce5:	66 90                	xchg   %ax,%ax
  100ce7:	66 90                	xchg   %ax,%ax
  100ce9:	66 90                	xchg   %ax,%ax
  100ceb:	66 90                	xchg   %ax,%ax
  100ced:	66 90                	xchg   %ax,%ax
  100cef:	66 90                	xchg   %ax,%ax
  100cf1:	66 90                	xchg   %ax,%ax
  100cf3:	66 90                	xchg   %ax,%ax
  100cf5:	66 90                	xchg   %ax,%ax
  100cf7:	66 90                	xchg   %ax,%ax
  100cf9:	66 90                	xchg   %ax,%ax
  100cfb:	66 90                	xchg   %ax,%ax
  100cfd:	66 90                	xchg   %ax,%ax
  100cff:	66 90                	xchg   %ax,%ax
  100d01:	66 90                	xchg   %ax,%ax
  100d03:	66 90                	xchg   %ax,%ax
  100d05:	66 90                	xchg   %ax,%ax
  100d07:	66 90                	xchg   %ax,%ax
  100d09:	66 90                	xchg   %ax,%ax
  100d0b:	66 90                	xchg   %ax,%ax
  100d0d:	66 90                	xchg   %ax,%ax
  100d0f:	66 90                	xchg   %ax,%ax
  100d11:	66 90                	xchg   %ax,%ax
  100d13:	66 90                	xchg   %ax,%ax
  100d15:	66 90                	xchg   %ax,%ax
  100d17:	66 90                	xchg   %ax,%ax
  100d19:	66 90                	xchg   %ax,%ax
  100d1b:	66 90                	xchg   %ax,%ax
  100d1d:	66 90                	xchg   %ax,%ax
  100d1f:	66 90                	xchg   %ax,%ax
  100d21:	66 90                	xchg   %ax,%ax
  100d23:	66 90                	xchg   %ax,%ax
  100d25:	66 90                	xchg   %ax,%ax
  100d27:	66 90                	xchg   %ax,%ax
  100d29:	66 90                	xchg   %ax,%ax
  100d2b:	66 90                	xchg   %ax,%ax
  100d2d:	66 90                	xchg   %ax,%ax
  100d2f:	66 90                	xchg   %ax,%ax
  100d31:	66 90                	xchg   %ax,%ax
  100d33:	66 90                	xchg   %ax,%ax
  100d35:	66 90                	xchg   %ax,%ax
  100d37:	66 90                	xchg   %ax,%ax
  100d39:	66 90                	xchg   %ax,%ax
  100d3b:	66 90                	xchg   %ax,%ax
  100d3d:	66 90                	xchg   %ax,%ax
  100d3f:	66 90                	xchg   %ax,%ax
  100d41:	66 90                	xchg   %ax,%ax
  100d43:	66 90                	xchg   %ax,%ax
  100d45:	66 90                	xchg   %ax,%ax
  100d47:	66 90                	xchg   %ax,%ax
  100d49:	66 90                	xchg   %ax,%ax
  100d4b:	66 90                	xchg   %ax,%ax
  100d4d:	66 90                	xchg   %ax,%ax
  100d4f:	66 90                	xchg   %ax,%ax
  100d51:	66 90                	xchg   %ax,%ax
  100d53:	66 90                	xchg   %ax,%ax
  100d55:	66 90                	xchg   %ax,%ax
  100d57:	66 90                	xchg   %ax,%ax
  100d59:	66 90                	xchg   %ax,%ax
  100d5b:	66 90                	xchg   %ax,%ax
  100d5d:	66 90                	xchg   %ax,%ax
  100d5f:	66 90                	xchg   %ax,%ax
  100d61:	66 90                	xchg   %ax,%ax
  100d63:	66 90                	xchg   %ax,%ax
  100d65:	66 90                	xchg   %ax,%ax
  100d67:	66 90                	xchg   %ax,%ax
  100d69:	66 90                	xchg   %ax,%ax
  100d6b:	66 90                	xchg   %ax,%ax
  100d6d:	66 90                	xchg   %ax,%ax
  100d6f:	66 90                	xchg   %ax,%ax
  100d71:	66 90                	xchg   %ax,%ax
  100d73:	66 90                	xchg   %ax,%ax
  100d75:	66 90                	xchg   %ax,%ax
  100d77:	66 90                	xchg   %ax,%ax
  100d79:	66 90                	xchg   %ax,%ax
  100d7b:	66 90                	xchg   %ax,%ax
  100d7d:	66 90                	xchg   %ax,%ax
  100d7f:	66 90                	xchg   %ax,%ax
  100d81:	66 90                	xchg   %ax,%ax
  100d83:	66 90                	xchg   %ax,%ax
  100d85:	66 90                	xchg   %ax,%ax
  100d87:	66 90                	xchg   %ax,%ax
  100d89:	66 90                	xchg   %ax,%ax
  100d8b:	66 90                	xchg   %ax,%ax
  100d8d:	66 90                	xchg   %ax,%ax
  100d8f:	66 90                	xchg   %ax,%ax
  100d91:	66 90                	xchg   %ax,%ax
  100d93:	66 90                	xchg   %ax,%ax
  100d95:	66 90                	xchg   %ax,%ax
  100d97:	66 90                	xchg   %ax,%ax
  100d99:	66 90                	xchg   %ax,%ax
  100d9b:	66 90                	xchg   %ax,%ax
  100d9d:	66 90                	xchg   %ax,%ax
  100d9f:	66 90                	xchg   %ax,%ax
  100da1:	66 90                	xchg   %ax,%ax
  100da3:	66 90                	xchg   %ax,%ax
  100da5:	66 90                	xchg   %ax,%ax
  100da7:	66 90                	xchg   %ax,%ax
  100da9:	66 90                	xchg   %ax,%ax
  100dab:	66 90                	xchg   %ax,%ax
  100dad:	66 90                	xchg   %ax,%ax
  100daf:	66 90                	xchg   %ax,%ax
  100db1:	66 90                	xchg   %ax,%ax
  100db3:	66 90                	xchg   %ax,%ax
  100db5:	66 90                	xchg   %ax,%ax
  100db7:	66 90                	xchg   %ax,%ax
  100db9:	66 90                	xchg   %ax,%ax
  100dbb:	66 90                	xchg   %ax,%ax
  100dbd:	66 90                	xchg   %ax,%ax
  100dbf:	66 90                	xchg   %ax,%ax
  100dc1:	66 90                	xchg   %ax,%ax
  100dc3:	66 90                	xchg   %ax,%ax
  100dc5:	66 90                	xchg   %ax,%ax
  100dc7:	66 90                	xchg   %ax,%ax
  100dc9:	66 90                	xchg   %ax,%ax
  100dcb:	66 90                	xchg   %ax,%ax
  100dcd:	66 90                	xchg   %ax,%ax
  100dcf:	66 90                	xchg   %ax,%ax
  100dd1:	66 90                	xchg   %ax,%ax
  100dd3:	66 90                	xchg   %ax,%ax
  100dd5:	66 90                	xchg   %ax,%ax
  100dd7:	66 90                	xchg   %ax,%ax
  100dd9:	66 90                	xchg   %ax,%ax
  100ddb:	66 90                	xchg   %ax,%ax
  100ddd:	66 90                	xchg   %ax,%ax
  100ddf:	66 90                	xchg   %ax,%ax
  100de1:	66 90                	xchg   %ax,%ax
  100de3:	66 90                	xchg   %ax,%ax
  100de5:	66 90                	xchg   %ax,%ax
  100de7:	66 90                	xchg   %ax,%ax
  100de9:	66 90                	xchg   %ax,%ax
  100deb:	66 90                	xchg   %ax,%ax
  100ded:	66 90                	xchg   %ax,%ax
  100def:	66 90                	xchg   %ax,%ax
  100df1:	66 90                	xchg   %ax,%ax
  100df3:	66 90                	xchg   %ax,%ax
  100df5:	66 90                	xchg   %ax,%ax
  100df7:	66 90                	xchg   %ax,%ax
  100df9:	66 90                	xchg   %ax,%ax
  100dfb:	66 90                	xchg   %ax,%ax
  100dfd:	66 90                	xchg   %ax,%ax
  100dff:	66 90                	xchg   %ax,%ax
  100e01:	66 90                	xchg   %ax,%ax
  100e03:	66 90                	xchg   %ax,%ax
  100e05:	66 90                	xchg   %ax,%ax
  100e07:	66 90                	xchg   %ax,%ax
  100e09:	66 90                	xchg   %ax,%ax
  100e0b:	66 90                	xchg   %ax,%ax
  100e0d:	66 90                	xchg   %ax,%ax
  100e0f:	66 90                	xchg   %ax,%ax
  100e11:	66 90                	xchg   %ax,%ax
  100e13:	66 90                	xchg   %ax,%ax
  100e15:	66 90                	xchg   %ax,%ax
  100e17:	66 90                	xchg   %ax,%ax
  100e19:	66 90                	xchg   %ax,%ax
  100e1b:	66 90                	xchg   %ax,%ax
  100e1d:	66 90                	xchg   %ax,%ax
  100e1f:	66 90                	xchg   %ax,%ax
  100e21:	66 90                	xchg   %ax,%ax
  100e23:	66 90                	xchg   %ax,%ax
  100e25:	66 90                	xchg   %ax,%ax
  100e27:	66 90                	xchg   %ax,%ax
  100e29:	66 90                	xchg   %ax,%ax
  100e2b:	66 90                	xchg   %ax,%ax
  100e2d:	66 90                	xchg   %ax,%ax
  100e2f:	66 90                	xchg   %ax,%ax
  100e31:	66 90                	xchg   %ax,%ax
  100e33:	66 90                	xchg   %ax,%ax
  100e35:	66 90                	xchg   %ax,%ax
  100e37:	66 90                	xchg   %ax,%ax
  100e39:	66 90                	xchg   %ax,%ax
  100e3b:	66 90                	xchg   %ax,%ax
  100e3d:	66 90                	xchg   %ax,%ax
  100e3f:	66 90                	xchg   %ax,%ax
  100e41:	66 90                	xchg   %ax,%ax
  100e43:	66 90                	xchg   %ax,%ax
  100e45:	66 90                	xchg   %ax,%ax
  100e47:	66 90                	xchg   %ax,%ax
  100e49:	66 90                	xchg   %ax,%ax
  100e4b:	66 90                	xchg   %ax,%ax
  100e4d:	66 90                	xchg   %ax,%ax
  100e4f:	66 90                	xchg   %ax,%ax
  100e51:	66 90                	xchg   %ax,%ax
  100e53:	66 90                	xchg   %ax,%ax
  100e55:	66 90                	xchg   %ax,%ax
  100e57:	66 90                	xchg   %ax,%ax
  100e59:	66 90                	xchg   %ax,%ax
  100e5b:	66 90                	xchg   %ax,%ax
  100e5d:	66 90                	xchg   %ax,%ax
  100e5f:	66 90                	xchg   %ax,%ax
  100e61:	66 90                	xchg   %ax,%ax
  100e63:	66 90                	xchg   %ax,%ax
  100e65:	66 90                	xchg   %ax,%ax
  100e67:	66 90                	xchg   %ax,%ax
  100e69:	66 90                	xchg   %ax,%ax
  100e6b:	66 90                	xchg   %ax,%ax
  100e6d:	66 90                	xchg   %ax,%ax
  100e6f:	66 90                	xchg   %ax,%ax
  100e71:	66 90                	xchg   %ax,%ax
  100e73:	66 90                	xchg   %ax,%ax
  100e75:	66 90                	xchg   %ax,%ax
  100e77:	66 90                	xchg   %ax,%ax
  100e79:	66 90                	xchg   %ax,%ax
  100e7b:	66 90                	xchg   %ax,%ax
  100e7d:	66 90                	xchg   %ax,%ax
  100e7f:	66 90                	xchg   %ax,%ax
  100e81:	66 90                	xchg   %ax,%ax
  100e83:	66 90                	xchg   %ax,%ax
  100e85:	66 90                	xchg   %ax,%ax
  100e87:	66 90                	xchg   %ax,%ax
  100e89:	66 90                	xchg   %ax,%ax
  100e8b:	66 90                	xchg   %ax,%ax
  100e8d:	66 90                	xchg   %ax,%ax
  100e8f:	66 90                	xchg   %ax,%ax
  100e91:	66 90                	xchg   %ax,%ax
  100e93:	66 90                	xchg   %ax,%ax
  100e95:	66 90                	xchg   %ax,%ax
  100e97:	66 90                	xchg   %ax,%ax
  100e99:	66 90                	xchg   %ax,%ax
  100e9b:	66 90                	xchg   %ax,%ax
  100e9d:	66 90                	xchg   %ax,%ax
  100e9f:	66 90                	xchg   %ax,%ax
  100ea1:	66 90                	xchg   %ax,%ax
  100ea3:	66 90                	xchg   %ax,%ax
  100ea5:	66 90                	xchg   %ax,%ax
  100ea7:	66 90                	xchg   %ax,%ax
  100ea9:	66 90                	xchg   %ax,%ax
  100eab:	66 90                	xchg   %ax,%ax
  100ead:	66 90                	xchg   %ax,%ax
  100eaf:	66 90                	xchg   %ax,%ax
  100eb1:	66 90                	xchg   %ax,%ax
  100eb3:	66 90                	xchg   %ax,%ax
  100eb5:	66 90                	xchg   %ax,%ax
  100eb7:	66 90                	xchg   %ax,%ax
  100eb9:	66 90                	xchg   %ax,%ax
  100ebb:	66 90                	xchg   %ax,%ax
  100ebd:	66 90                	xchg   %ax,%ax
  100ebf:	66 90                	xchg   %ax,%ax
  100ec1:	66 90                	xchg   %ax,%ax
  100ec3:	66 90                	xchg   %ax,%ax
  100ec5:	66 90                	xchg   %ax,%ax
  100ec7:	66 90                	xchg   %ax,%ax
  100ec9:	66 90                	xchg   %ax,%ax
  100ecb:	66 90                	xchg   %ax,%ax
  100ecd:	66 90                	xchg   %ax,%ax
  100ecf:	66 90                	xchg   %ax,%ax
  100ed1:	66 90                	xchg   %ax,%ax
  100ed3:	66 90                	xchg   %ax,%ax
  100ed5:	66 90                	xchg   %ax,%ax
  100ed7:	66 90                	xchg   %ax,%ax
  100ed9:	66 90                	xchg   %ax,%ax
  100edb:	66 90                	xchg   %ax,%ax
  100edd:	66 90                	xchg   %ax,%ax
  100edf:	66 90                	xchg   %ax,%ax
  100ee1:	66 90                	xchg   %ax,%ax
  100ee3:	66 90                	xchg   %ax,%ax
  100ee5:	66 90                	xchg   %ax,%ax
  100ee7:	66 90                	xchg   %ax,%ax
  100ee9:	66 90                	xchg   %ax,%ax
  100eeb:	66 90                	xchg   %ax,%ax
  100eed:	66 90                	xchg   %ax,%ax
  100eef:	66 90                	xchg   %ax,%ax
  100ef1:	66 90                	xchg   %ax,%ax
  100ef3:	66 90                	xchg   %ax,%ax
  100ef5:	66 90                	xchg   %ax,%ax
  100ef7:	66 90                	xchg   %ax,%ax
  100ef9:	66 90                	xchg   %ax,%ax
  100efb:	66 90                	xchg   %ax,%ax
  100efd:	66 90                	xchg   %ax,%ax
  100eff:	66 90                	xchg   %ax,%ax
  100f01:	66 90                	xchg   %ax,%ax
  100f03:	66 90                	xchg   %ax,%ax
  100f05:	66 90                	xchg   %ax,%ax
  100f07:	66 90                	xchg   %ax,%ax
  100f09:	66 90                	xchg   %ax,%ax
  100f0b:	66 90                	xchg   %ax,%ax
  100f0d:	66 90                	xchg   %ax,%ax
  100f0f:	66 90                	xchg   %ax,%ax
  100f11:	66 90                	xchg   %ax,%ax
  100f13:	66 90                	xchg   %ax,%ax
  100f15:	66 90                	xchg   %ax,%ax
  100f17:	66 90                	xchg   %ax,%ax
  100f19:	66 90                	xchg   %ax,%ax
  100f1b:	66 90                	xchg   %ax,%ax
  100f1d:	66 90                	xchg   %ax,%ax
  100f1f:	66 90                	xchg   %ax,%ax
  100f21:	66 90                	xchg   %ax,%ax
  100f23:	66 90                	xchg   %ax,%ax
  100f25:	66 90                	xchg   %ax,%ax
  100f27:	66 90                	xchg   %ax,%ax
  100f29:	66 90                	xchg   %ax,%ax
  100f2b:	66 90                	xchg   %ax,%ax
  100f2d:	66 90                	xchg   %ax,%ax
  100f2f:	66 90                	xchg   %ax,%ax
  100f31:	66 90                	xchg   %ax,%ax
  100f33:	66 90                	xchg   %ax,%ax
  100f35:	66 90                	xchg   %ax,%ax
  100f37:	66 90                	xchg   %ax,%ax
  100f39:	66 90                	xchg   %ax,%ax
  100f3b:	66 90                	xchg   %ax,%ax
  100f3d:	66 90                	xchg   %ax,%ax
  100f3f:	66 90                	xchg   %ax,%ax
  100f41:	66 90                	xchg   %ax,%ax
  100f43:	66 90                	xchg   %ax,%ax
  100f45:	66 90                	xchg   %ax,%ax
  100f47:	66 90                	xchg   %ax,%ax
  100f49:	66 90                	xchg   %ax,%ax
  100f4b:	66 90                	xchg   %ax,%ax
  100f4d:	66 90                	xchg   %ax,%ax
  100f4f:	66 90                	xchg   %ax,%ax
  100f51:	66 90                	xchg   %ax,%ax
  100f53:	66 90                	xchg   %ax,%ax
  100f55:	66 90                	xchg   %ax,%ax
  100f57:	66 90                	xchg   %ax,%ax
  100f59:	66 90                	xchg   %ax,%ax
  100f5b:	66 90                	xchg   %ax,%ax
  100f5d:	66 90                	xchg   %ax,%ax
  100f5f:	66 90                	xchg   %ax,%ax
  100f61:	66 90                	xchg   %ax,%ax
  100f63:	66 90                	xchg   %ax,%ax
  100f65:	66 90                	xchg   %ax,%ax
  100f67:	66 90                	xchg   %ax,%ax
  100f69:	66 90                	xchg   %ax,%ax
  100f6b:	66 90                	xchg   %ax,%ax
  100f6d:	66 90                	xchg   %ax,%ax
  100f6f:	66 90                	xchg   %ax,%ax
  100f71:	66 90                	xchg   %ax,%ax
  100f73:	66 90                	xchg   %ax,%ax
  100f75:	66 90                	xchg   %ax,%ax
  100f77:	66 90                	xchg   %ax,%ax
  100f79:	66 90                	xchg   %ax,%ax
  100f7b:	66 90                	xchg   %ax,%ax
  100f7d:	66 90                	xchg   %ax,%ax
  100f7f:	66 90                	xchg   %ax,%ax
  100f81:	66 90                	xchg   %ax,%ax
  100f83:	66 90                	xchg   %ax,%ax
  100f85:	66 90                	xchg   %ax,%ax
  100f87:	66 90                	xchg   %ax,%ax
  100f89:	66 90                	xchg   %ax,%ax
  100f8b:	66 90                	xchg   %ax,%ax
  100f8d:	66 90                	xchg   %ax,%ax
  100f8f:	66 90                	xchg   %ax,%ax
  100f91:	66 90                	xchg   %ax,%ax
  100f93:	66 90                	xchg   %ax,%ax
  100f95:	66 90                	xchg   %ax,%ax
  100f97:	66 90                	xchg   %ax,%ax
  100f99:	66 90                	xchg   %ax,%ax
  100f9b:	66 90                	xchg   %ax,%ax
  100f9d:	66 90                	xchg   %ax,%ax
  100f9f:	66 90                	xchg   %ax,%ax
  100fa1:	66 90                	xchg   %ax,%ax
  100fa3:	66 90                	xchg   %ax,%ax
  100fa5:	66 90                	xchg   %ax,%ax
  100fa7:	66 90                	xchg   %ax,%ax
  100fa9:	66 90                	xchg   %ax,%ax
  100fab:	66 90                	xchg   %ax,%ax
  100fad:	66 90                	xchg   %ax,%ax
  100faf:	66 90                	xchg   %ax,%ax
  100fb1:	66 90                	xchg   %ax,%ax
  100fb3:	66 90                	xchg   %ax,%ax
  100fb5:	66 90                	xchg   %ax,%ax
  100fb7:	66 90                	xchg   %ax,%ax
  100fb9:	66 90                	xchg   %ax,%ax
  100fbb:	66 90                	xchg   %ax,%ax
  100fbd:	66 90                	xchg   %ax,%ax
  100fbf:	66 90                	xchg   %ax,%ax
  100fc1:	66 90                	xchg   %ax,%ax
  100fc3:	66 90                	xchg   %ax,%ax
  100fc5:	66 90                	xchg   %ax,%ax
  100fc7:	66 90                	xchg   %ax,%ax
  100fc9:	66 90                	xchg   %ax,%ax
  100fcb:	66 90                	xchg   %ax,%ax
  100fcd:	66 90                	xchg   %ax,%ax
  100fcf:	66 90                	xchg   %ax,%ax
  100fd1:	66 90                	xchg   %ax,%ax
  100fd3:	66 90                	xchg   %ax,%ax
  100fd5:	66 90                	xchg   %ax,%ax
  100fd7:	66 90                	xchg   %ax,%ax
  100fd9:	66 90                	xchg   %ax,%ax
  100fdb:	66 90                	xchg   %ax,%ax
  100fdd:	66 90                	xchg   %ax,%ax
  100fdf:	66 90                	xchg   %ax,%ax
  100fe1:	66 90                	xchg   %ax,%ax
  100fe3:	66 90                	xchg   %ax,%ax
  100fe5:	66 90                	xchg   %ax,%ax
  100fe7:	66 90                	xchg   %ax,%ax
  100fe9:	66 90                	xchg   %ax,%ax
  100feb:	66 90                	xchg   %ax,%ax
  100fed:	66 90                	xchg   %ax,%ax
  100fef:	66 90                	xchg   %ax,%ax
  100ff1:	66 90                	xchg   %ax,%ax
  100ff3:	66 90                	xchg   %ax,%ax
  100ff5:	66 90                	xchg   %ax,%ax
  100ff7:	66 90                	xchg   %ax,%ax
  100ff9:	66 90                	xchg   %ax,%ax
  100ffb:	66 90                	xchg   %ax,%ax
  100ffd:	66 90                	xchg   %ax,%ax
  100fff:	90                   	nop

Disassembly of section .text:

c0102000 <gdt_flush>:
c0102000:	8b 44 24 04          	mov    0x4(%esp),%eax
c0102004:	0f 01 10             	lgdtl  (%eax)
c0102007:	66 b8 10 00          	mov    $0x10,%ax
c010200b:	8e d8                	mov    %eax,%ds
c010200d:	8e c0                	mov    %eax,%es
c010200f:	8e e0                	mov    %eax,%fs
c0102011:	8e e8                	mov    %eax,%gs
c0102013:	8e d0                	mov    %eax,%ss
c0102015:	ea 1c 20 10 c0 08 00 	ljmp   $0x8,$0xc010201c

c010201c <gdt_flush.flush>:
c010201c:	c3                   	ret    

c010201d <tss_flush>:
c010201d:	66 b8 28 00          	mov    $0x28,%ax
c0102021:	0f 00 d8             	ltr    %ax
c0102024:	c3                   	ret    
c0102025:	66 90                	xchg   %ax,%ax
c0102027:	66 90                	xchg   %ax,%ax
c0102029:	66 90                	xchg   %ax,%ax
c010202b:	66 90                	xchg   %ax,%ax
c010202d:	66 90                	xchg   %ax,%ax
c010202f:	90                   	nop

c0102030 <idt_flush>:
c0102030:	8b 44 24 04          	mov    0x4(%esp),%eax
c0102034:	0f 01 18             	lidtl  (%eax)
c0102037:	c3                   	ret    

c0102038 <isr0>:
c0102038:	6a 00                	push   $0x0
c010203a:	6a 00                	push   $0x0
c010203c:	e9 d0 00 00 00       	jmp    c0102111 <isr_common_stub>

c0102041 <isr1>:
c0102041:	6a 00                	push   $0x0
c0102043:	6a 01                	push   $0x1
c0102045:	e9 c7 00 00 00       	jmp    c0102111 <isr_common_stub>

c010204a <isr2>:
c010204a:	6a 00                	push   $0x0
c010204c:	6a 02                	push   $0x2
c010204e:	e9 be 00 00 00       	jmp    c0102111 <isr_common_stub>

c0102053 <isr3>:
c0102053:	6a 00                	push   $0x0
c0102055:	6a 03                	push   $0x3
c0102057:	e9 b5 00 00 00       	jmp    c0102111 <isr_common_stub>

c010205c <isr4>:
c010205c:	6a 00                	push   $0x0
c010205e:	6a 04                	push   $0x4
c0102060:	e9 ac 00 00 00       	jmp    c0102111 <isr_common_stub>

c0102065 <isr5>:
c0102065:	6a 00                	push   $0x0
c0102067:	6a 05                	push   $0x5
c0102069:	e9 a3 00 00 00       	jmp    c0102111 <isr_common_stub>

c010206e <isr6>:
c010206e:	6a 00                	push   $0x0
c0102070:	6a 06                	push   $0x6
c0102072:	e9 9a 00 00 00       	jmp    c0102111 <isr_common_stub>

c0102077 <isr7>:
c0102077:	6a 00                	push   $0x0
c0102079:	6a 07                	push   $0x7
c010207b:	e9 91 00 00 00       	jmp    c0102111 <isr_common_stub>

c0102080 <isr8>:
c0102080:	6a 08                	push   $0x8
c0102082:	e9 8a 00 00 00       	jmp    c0102111 <isr_common_stub>

c0102087 <isr9>:
c0102087:	6a 00                	push   $0x0
c0102089:	6a 09                	push   $0x9
c010208b:	e9 81 00 00 00       	jmp    c0102111 <isr_common_stub>

c0102090 <isr10>:
c0102090:	6a 0a                	push   $0xa
c0102092:	eb 7d                	jmp    c0102111 <isr_common_stub>

c0102094 <isr11>:
c0102094:	6a 0b                	push   $0xb
c0102096:	eb 79                	jmp    c0102111 <isr_common_stub>

c0102098 <isr12>:
c0102098:	6a 0c                	push   $0xc
c010209a:	eb 75                	jmp    c0102111 <isr_common_stub>

c010209c <isr13>:
c010209c:	6a 0d                	push   $0xd
c010209e:	eb 71                	jmp    c0102111 <isr_common_stub>

c01020a0 <isr14>:
c01020a0:	6a 0e                	push   $0xe
c01020a2:	eb 6d                	jmp    c0102111 <isr_common_stub>

c01020a4 <isr15>:
c01020a4:	6a 00                	push   $0x0
c01020a6:	6a 0f                	push   $0xf
c01020a8:	eb 67                	jmp    c0102111 <isr_common_stub>

c01020aa <isr16>:
c01020aa:	6a 00                	push   $0x0
c01020ac:	6a 10                	push   $0x10
c01020ae:	eb 61                	jmp    c0102111 <isr_common_stub>

c01020b0 <isr17>:
c01020b0:	6a 11                	push   $0x11
c01020b2:	eb 5d                	jmp    c0102111 <isr_common_stub>

c01020b4 <isr18>:
c01020b4:	6a 00                	push   $0x0
c01020b6:	6a 12                	push   $0x12
c01020b8:	eb 57                	jmp    c0102111 <isr_common_stub>

c01020ba <isr19>:
c01020ba:	6a 00                	push   $0x0
c01020bc:	6a 13                	push   $0x13
c01020be:	eb 51                	jmp    c0102111 <isr_common_stub>

c01020c0 <isr20>:
c01020c0:	6a 00                	push   $0x0
c01020c2:	6a 14                	push   $0x14
c01020c4:	eb 4b                	jmp    c0102111 <isr_common_stub>

c01020c6 <isr21>:
c01020c6:	6a 00                	push   $0x0
c01020c8:	6a 15                	push   $0x15
c01020ca:	eb 45                	jmp    c0102111 <isr_common_stub>

c01020cc <isr22>:
c01020cc:	6a 00                	push   $0x0
c01020ce:	6a 16                	push   $0x16
c01020d0:	eb 3f                	jmp    c0102111 <isr_common_stub>

c01020d2 <isr23>:
c01020d2:	6a 00                	push   $0x0
c01020d4:	6a 17                	push   $0x17
c01020d6:	eb 39                	jmp    c0102111 <isr_common_stub>

c01020d8 <isr24>:
c01020d8:	6a 00                	push   $0x0
c01020da:	6a 18                	push   $0x18
c01020dc:	eb 33                	jmp    c0102111 <isr_common_stub>

c01020de <isr25>:
c01020de:	6a 00                	push   $0x0
c01020e0:	6a 19                	push   $0x19
c01020e2:	eb 2d                	jmp    c0102111 <isr_common_stub>

c01020e4 <isr26>:
c01020e4:	6a 00                	push   $0x0
c01020e6:	6a 1a                	push   $0x1a
c01020e8:	eb 27                	jmp    c0102111 <isr_common_stub>

c01020ea <isr27>:
c01020ea:	6a 00                	push   $0x0
c01020ec:	6a 1b                	push   $0x1b
c01020ee:	eb 21                	jmp    c0102111 <isr_common_stub>

c01020f0 <isr28>:
c01020f0:	6a 00                	push   $0x0
c01020f2:	6a 1c                	push   $0x1c
c01020f4:	eb 1b                	jmp    c0102111 <isr_common_stub>

c01020f6 <isr29>:
c01020f6:	6a 00                	push   $0x0
c01020f8:	6a 1d                	push   $0x1d
c01020fa:	eb 15                	jmp    c0102111 <isr_common_stub>

c01020fc <isr30>:
c01020fc:	6a 00                	push   $0x0
c01020fe:	6a 1e                	push   $0x1e
c0102100:	eb 0f                	jmp    c0102111 <isr_common_stub>

c0102102 <isr31>:
c0102102:	6a 00                	push   $0x0
c0102104:	6a 1f                	push   $0x1f
c0102106:	eb 09                	jmp    c0102111 <isr_common_stub>

c0102108 <isr128>:
c0102108:	6a 00                	push   $0x0
c010210a:	68 80 00 00 00       	push   $0x80
c010210f:	eb 00                	jmp    c0102111 <isr_common_stub>

c0102111 <isr_common_stub>:
c0102111:	60                   	pusha  
c0102112:	66 8c d8             	mov    %ds,%ax
c0102115:	50                   	push   %eax
c0102116:	66 b8 10 00          	mov    $0x10,%ax
c010211a:	8e d8                	mov    %eax,%ds
c010211c:	8e c0                	mov    %eax,%es
c010211e:	8e e0                	mov    %eax,%fs
c0102120:	8e e8                	mov    %eax,%gs
c0102122:	8e d0                	mov    %eax,%ss
c0102124:	54                   	push   %esp
c0102125:	e8 36 57 00 00       	call   c0107860 <isr_handler>
c010212a:	83 c4 04             	add    $0x4,%esp
c010212d:	5b                   	pop    %ebx
c010212e:	8e db                	mov    %ebx,%ds
c0102130:	8e c3                	mov    %ebx,%es
c0102132:	8e e3                	mov    %ebx,%fs
c0102134:	8e eb                	mov    %ebx,%gs
c0102136:	8e d3                	mov    %ebx,%ss
c0102138:	61                   	popa   
c0102139:	83 c4 08             	add    $0x8,%esp
c010213c:	cf                   	iret   

c010213d <irq0>:
c010213d:	6a 00                	push   $0x0
c010213f:	6a 20                	push   $0x20
c0102141:	eb 5a                	jmp    c010219d <irq_common_stub>

c0102143 <irq1>:
c0102143:	6a 00                	push   $0x0
c0102145:	6a 21                	push   $0x21
c0102147:	eb 54                	jmp    c010219d <irq_common_stub>

c0102149 <irq2>:
c0102149:	6a 00                	push   $0x0
c010214b:	6a 22                	push   $0x22
c010214d:	eb 4e                	jmp    c010219d <irq_common_stub>

c010214f <irq3>:
c010214f:	6a 00                	push   $0x0
c0102151:	6a 23                	push   $0x23
c0102153:	eb 48                	jmp    c010219d <irq_common_stub>

c0102155 <irq4>:
c0102155:	6a 00                	push   $0x0
c0102157:	6a 24                	push   $0x24
c0102159:	eb 42                	jmp    c010219d <irq_common_stub>

c010215b <irq5>:
c010215b:	6a 00                	push   $0x0
c010215d:	6a 25                	push   $0x25
c010215f:	eb 3c                	jmp    c010219d <irq_common_stub>

c0102161 <irq6>:
c0102161:	6a 00                	push   $0x0
c0102163:	6a 26                	push   $0x26
c0102165:	eb 36                	jmp    c010219d <irq_common_stub>

c0102167 <irq7>:
c0102167:	6a 00                	push   $0x0
c0102169:	6a 27                	push   $0x27
c010216b:	eb 30                	jmp    c010219d <irq_common_stub>

c010216d <irq8>:
c010216d:	6a 00                	push   $0x0
c010216f:	6a 28                	push   $0x28
c0102171:	eb 2a                	jmp    c010219d <irq_common_stub>

c0102173 <irq9>:
c0102173:	6a 00                	push   $0x0
c0102175:	6a 29                	push   $0x29
c0102177:	eb 24                	jmp    c010219d <irq_common_stub>

c0102179 <irq10>:
c0102179:	6a 00                	push   $0x0
c010217b:	6a 2a                	push   $0x2a
c010217d:	eb 1e                	jmp    c010219d <irq_common_stub>

c010217f <irq11>:
c010217f:	6a 00                	push   $0x0
c0102181:	6a 2b                	push   $0x2b
c0102183:	eb 18                	jmp    c010219d <irq_common_stub>

c0102185 <irq12>:
c0102185:	6a 00                	push   $0x0
c0102187:	6a 2c                	push   $0x2c
c0102189:	eb 12                	jmp    c010219d <irq_common_stub>

c010218b <irq13>:
c010218b:	6a 00                	push   $0x0
c010218d:	6a 2d                	push   $0x2d
c010218f:	eb 0c                	jmp    c010219d <irq_common_stub>

c0102191 <irq14>:
c0102191:	6a 00                	push   $0x0
c0102193:	6a 2e                	push   $0x2e
c0102195:	eb 06                	jmp    c010219d <irq_common_stub>

c0102197 <irq15>:
c0102197:	6a 00                	push   $0x0
c0102199:	6a 2f                	push   $0x2f
c010219b:	eb 00                	jmp    c010219d <irq_common_stub>

c010219d <irq_common_stub>:
c010219d:	60                   	pusha  
c010219e:	66 8c d8             	mov    %ds,%ax
c01021a1:	50                   	push   %eax
c01021a2:	66 b8 10 00          	mov    $0x10,%ax
c01021a6:	8e d8                	mov    %eax,%ds
c01021a8:	8e c0                	mov    %eax,%es
c01021aa:	8e e0                	mov    %eax,%fs
c01021ac:	8e e8                	mov    %eax,%gs
c01021ae:	8e d0                	mov    %eax,%ss
c01021b0:	54                   	push   %esp
c01021b1:	e8 33 57 00 00       	call   c01078e9 <irq_handler>
c01021b6:	83 c4 04             	add    $0x4,%esp

c01021b9 <forkret_s>:
c01021b9:	5b                   	pop    %ebx
c01021ba:	8e db                	mov    %ebx,%ds
c01021bc:	8e c3                	mov    %ebx,%es
c01021be:	8e e3                	mov    %ebx,%fs
c01021c0:	8e eb                	mov    %ebx,%gs
c01021c2:	8e d3                	mov    %ebx,%ss
c01021c4:	61                   	popa   
c01021c5:	83 c4 08             	add    $0x8,%esp
c01021c8:	cf                   	iret   

c01021c9 <forkret_s.end>:
c01021c9:	66 90                	xchg   %ax,%ax
c01021cb:	66 90                	xchg   %ax,%ax
c01021cd:	66 90                	xchg   %ax,%ax
c01021cf:	90                   	nop

c01021d0 <kthread_entry>:
c01021d0:	52                   	push   %edx
c01021d1:	ff d3                	call   *%ebx
c01021d3:	50                   	push   %eax
c01021d4:	e8 b9 64 00 00       	call   c0108692 <do_exit>
c01021d9:	66 90                	xchg   %ax,%ax
c01021db:	66 90                	xchg   %ax,%ax
c01021dd:	66 90                	xchg   %ax,%ax
c01021df:	90                   	nop

c01021e0 <switch_to>:
c01021e0:	8b 44 24 04          	mov    0x4(%esp),%eax
c01021e4:	53                   	push   %ebx
c01021e5:	8b 5c 24 04          	mov    0x4(%esp),%ebx
c01021e9:	89 18                	mov    %ebx,(%eax)
c01021eb:	5b                   	pop    %ebx
c01021ec:	89 60 04             	mov    %esp,0x4(%eax)
c01021ef:	89 68 08             	mov    %ebp,0x8(%eax)
c01021f2:	89 48 0c             	mov    %ecx,0xc(%eax)
c01021f5:	89 50 10             	mov    %edx,0x10(%eax)
c01021f8:	89 70 14             	mov    %esi,0x14(%eax)
c01021fb:	89 78 18             	mov    %edi,0x18(%eax)
c01021fe:	89 68 1c             	mov    %ebp,0x1c(%eax)
c0102201:	8b 44 24 08          	mov    0x8(%esp),%eax
c0102205:	8b 68 1c             	mov    0x1c(%eax),%ebp
c0102208:	8b 78 18             	mov    0x18(%eax),%edi
c010220b:	8b 70 14             	mov    0x14(%eax),%esi
c010220e:	8b 50 10             	mov    0x10(%eax),%edx
c0102211:	8b 48 0c             	mov    0xc(%eax),%ecx
c0102214:	8b 58 08             	mov    0x8(%eax),%ebx
c0102217:	8b 60 04             	mov    0x4(%eax),%esp
c010221a:	53                   	push   %ebx
c010221b:	53                   	push   %ebx
c010221c:	8b 18                	mov    (%eax),%ebx
c010221e:	89 5c 24 04          	mov    %ebx,0x4(%esp)
c0102222:	5b                   	pop    %ebx
c0102223:	c3                   	ret    

c0102224 <__list_add>:
c0102224:	55                   	push   %ebp
c0102225:	89 e5                	mov    %esp,%ebp
c0102227:	8b 45 10             	mov    0x10(%ebp),%eax
c010222a:	8b 55 08             	mov    0x8(%ebp),%edx
c010222d:	89 50 04             	mov    %edx,0x4(%eax)
c0102230:	8b 45 08             	mov    0x8(%ebp),%eax
c0102233:	8b 55 10             	mov    0x10(%ebp),%edx
c0102236:	89 10                	mov    %edx,(%eax)
c0102238:	8b 45 08             	mov    0x8(%ebp),%eax
c010223b:	8b 55 0c             	mov    0xc(%ebp),%edx
c010223e:	89 50 04             	mov    %edx,0x4(%eax)
c0102241:	8b 45 0c             	mov    0xc(%ebp),%eax
c0102244:	8b 55 08             	mov    0x8(%ebp),%edx
c0102247:	89 10                	mov    %edx,(%eax)
c0102249:	5d                   	pop    %ebp
c010224a:	c3                   	ret    

c010224b <list_add>:
c010224b:	55                   	push   %ebp
c010224c:	89 e5                	mov    %esp,%ebp
c010224e:	83 ec 0c             	sub    $0xc,%esp
c0102251:	8b 45 0c             	mov    0xc(%ebp),%eax
c0102254:	8b 00                	mov    (%eax),%eax
c0102256:	89 44 24 08          	mov    %eax,0x8(%esp)
c010225a:	8b 45 0c             	mov    0xc(%ebp),%eax
c010225d:	89 44 24 04          	mov    %eax,0x4(%esp)
c0102261:	8b 45 08             	mov    0x8(%ebp),%eax
c0102264:	89 04 24             	mov    %eax,(%esp)
c0102267:	e8 b8 ff ff ff       	call   c0102224 <__list_add>
c010226c:	c9                   	leave  
c010226d:	c3                   	ret    

c010226e <__list_del>:
c010226e:	55                   	push   %ebp
c010226f:	89 e5                	mov    %esp,%ebp
c0102271:	8b 45 0c             	mov    0xc(%ebp),%eax
c0102274:	8b 55 08             	mov    0x8(%ebp),%edx
c0102277:	89 50 04             	mov    %edx,0x4(%eax)
c010227a:	8b 45 08             	mov    0x8(%ebp),%eax
c010227d:	8b 55 0c             	mov    0xc(%ebp),%edx
c0102280:	89 10                	mov    %edx,(%eax)
c0102282:	5d                   	pop    %ebp
c0102283:	c3                   	ret    

c0102284 <list_del>:
c0102284:	55                   	push   %ebp
c0102285:	89 e5                	mov    %esp,%ebp
c0102287:	83 ec 08             	sub    $0x8,%esp
c010228a:	8b 45 08             	mov    0x8(%ebp),%eax
c010228d:	8b 10                	mov    (%eax),%edx
c010228f:	8b 45 08             	mov    0x8(%ebp),%eax
c0102292:	8b 40 04             	mov    0x4(%eax),%eax
c0102295:	89 54 24 04          	mov    %edx,0x4(%esp)
c0102299:	89 04 24             	mov    %eax,(%esp)
c010229c:	e8 cd ff ff ff       	call   c010226e <__list_del>
c01022a1:	c9                   	leave  
c01022a2:	c3                   	ret    

c01022a3 <list_empty>:
c01022a3:	55                   	push   %ebp
c01022a4:	89 e5                	mov    %esp,%ebp
c01022a6:	8b 45 08             	mov    0x8(%ebp),%eax
c01022a9:	8b 00                	mov    (%eax),%eax
c01022ab:	3b 45 08             	cmp    0x8(%ebp),%eax
c01022ae:	0f 94 c0             	sete   %al
c01022b1:	0f b6 c0             	movzbl %al,%eax
c01022b4:	5d                   	pop    %ebp
c01022b5:	c3                   	ret    

c01022b6 <pa_to_ka>:
c01022b6:	55                   	push   %ebp
c01022b7:	89 e5                	mov    %esp,%ebp
c01022b9:	8b 45 08             	mov    0x8(%ebp),%eax
c01022bc:	2d 00 00 00 40       	sub    $0x40000000,%eax
c01022c1:	5d                   	pop    %ebp
c01022c2:	c3                   	ret    

c01022c3 <__slob_alloc_pages>:
c01022c3:	55                   	push   %ebp
c01022c4:	89 e5                	mov    %esp,%ebp
c01022c6:	83 ec 28             	sub    $0x28,%esp
c01022c9:	8b 45 08             	mov    0x8(%ebp),%eax
c01022cc:	89 04 24             	mov    %eax,(%esp)
c01022cf:	e8 5c 4a 00 00       	call   c0106d30 <alloc_pages>
c01022d4:	89 45 f4             	mov    %eax,-0xc(%ebp)
c01022d7:	83 7d f4 00          	cmpl   $0x0,-0xc(%ebp)
c01022db:	75 07                	jne    c01022e4 <__slob_alloc_pages+0x21>
c01022dd:	b8 00 00 00 00       	mov    $0x0,%eax
c01022e2:	eb 0b                	jmp    c01022ef <__slob_alloc_pages+0x2c>
c01022e4:	8b 45 f4             	mov    -0xc(%ebp),%eax
c01022e7:	89 04 24             	mov    %eax,(%esp)
c01022ea:	e8 c7 ff ff ff       	call   c01022b6 <pa_to_ka>
c01022ef:	c9                   	leave  
c01022f0:	c3                   	ret    

c01022f1 <slob_print>:
c01022f1:	55                   	push   %ebp
c01022f2:	89 e5                	mov    %esp,%ebp
c01022f4:	83 ec 28             	sub    $0x28,%esp
c01022f7:	c7 45 f4 00 00 00 00 	movl   $0x0,-0xc(%ebp)
c01022fe:	a1 00 90 10 c0       	mov    0xc0109000,%eax
c0102303:	89 45 f4             	mov    %eax,-0xc(%ebp)
c0102306:	eb 3f                	jmp    c0102347 <slob_print+0x56>
c0102308:	8b 45 f4             	mov    -0xc(%ebp),%eax
c010230b:	83 e8 04             	sub    $0x4,%eax
c010230e:	89 45 f0             	mov    %eax,-0x10(%ebp)
c0102311:	8b 45 f0             	mov    -0x10(%ebp),%eax
c0102314:	0f b6 00             	movzbl (%eax),%eax
c0102317:	83 e0 01             	and    $0x1,%eax
c010231a:	0f b6 d0             	movzbl %al,%edx
c010231d:	8b 45 f0             	mov    -0x10(%ebp),%eax
c0102320:	8b 00                	mov    (%eax),%eax
c0102322:	d1 e8                	shr    %eax
c0102324:	89 54 24 0c          	mov    %edx,0xc(%esp)
c0102328:	89 44 24 08          	mov    %eax,0x8(%esp)
c010232c:	8b 45 f0             	mov    -0x10(%ebp),%eax
c010232f:	89 44 24 04          	mov    %eax,0x4(%esp)
c0102333:	c7 04 24 e0 96 10 c0 	movl   $0xc01096e0,(%esp)
c010233a:	e8 68 38 00 00       	call   c0105ba7 <printk>
c010233f:	8b 45 f4             	mov    -0xc(%ebp),%eax
c0102342:	8b 00                	mov    (%eax),%eax
c0102344:	89 45 f4             	mov    %eax,-0xc(%ebp)
c0102347:	81 7d f4 00 90 10 c0 	cmpl   $0xc0109000,-0xc(%ebp)
c010234e:	75 b8                	jne    c0102308 <slob_print+0x17>
c0102350:	c7 04 24 02 97 10 c0 	movl   $0xc0109702,(%esp)
c0102357:	e8 4b 38 00 00       	call   c0105ba7 <printk>
c010235c:	c9                   	leave  
c010235d:	c3                   	ret    

c010235e <slob_test>:
c010235e:	55                   	push   %ebp
c010235f:	89 e5                	mov    %esp,%ebp
c0102361:	83 ec 38             	sub    $0x38,%esp
c0102364:	e8 88 ff ff ff       	call   c01022f1 <slob_print>
c0102369:	c7 04 24 64 00 00 00 	movl   $0x64,(%esp)
c0102370:	e8 92 02 00 00       	call   c0102607 <kmalloc>
c0102375:	89 45 f4             	mov    %eax,-0xc(%ebp)
c0102378:	c7 04 24 c8 00 00 00 	movl   $0xc8,(%esp)
c010237f:	e8 83 02 00 00       	call   c0102607 <kmalloc>
c0102384:	89 45 f0             	mov    %eax,-0x10(%ebp)
c0102387:	c7 04 24 2c 01 00 00 	movl   $0x12c,(%esp)
c010238e:	e8 74 02 00 00       	call   c0102607 <kmalloc>
c0102393:	89 45 ec             	mov    %eax,-0x14(%ebp)
c0102396:	8b 45 f0             	mov    -0x10(%ebp),%eax
c0102399:	89 04 24             	mov    %eax,(%esp)
c010239c:	e8 fb 02 00 00       	call   c010269c <kfree>
c01023a1:	8b 45 ec             	mov    -0x14(%ebp),%eax
c01023a4:	89 04 24             	mov    %eax,(%esp)
c01023a7:	e8 f0 02 00 00       	call   c010269c <kfree>
c01023ac:	c7 04 24 ac 08 00 00 	movl   $0x8ac,(%esp)
c01023b3:	e8 4f 02 00 00       	call   c0102607 <kmalloc>
c01023b8:	89 45 e8             	mov    %eax,-0x18(%ebp)
c01023bb:	c7 04 24 f0 00 00 00 	movl   $0xf0,(%esp)
c01023c2:	e8 40 02 00 00       	call   c0102607 <kmalloc>
c01023c7:	89 45 e4             	mov    %eax,-0x1c(%ebp)
c01023ca:	c7 04 24 b6 08 00 00 	movl   $0x8b6,(%esp)
c01023d1:	e8 31 02 00 00       	call   c0102607 <kmalloc>
c01023d6:	89 45 e0             	mov    %eax,-0x20(%ebp)
c01023d9:	8b 45 e0             	mov    -0x20(%ebp),%eax
c01023dc:	89 04 24             	mov    %eax,(%esp)
c01023df:	e8 b8 02 00 00       	call   c010269c <kfree>
c01023e4:	8b 45 f4             	mov    -0xc(%ebp),%eax
c01023e7:	89 04 24             	mov    %eax,(%esp)
c01023ea:	e8 ad 02 00 00       	call   c010269c <kfree>
c01023ef:	c7 04 24 dc 00 00 00 	movl   $0xdc,(%esp)
c01023f6:	e8 0c 02 00 00       	call   c0102607 <kmalloc>
c01023fb:	89 45 dc             	mov    %eax,-0x24(%ebp)
c01023fe:	c7 04 24 b0 04 00 00 	movl   $0x4b0,(%esp)
c0102405:	e8 fd 01 00 00       	call   c0102607 <kmalloc>
c010240a:	89 45 d8             	mov    %eax,-0x28(%ebp)
c010240d:	8b 45 e8             	mov    -0x18(%ebp),%eax
c0102410:	89 04 24             	mov    %eax,(%esp)
c0102413:	e8 84 02 00 00       	call   c010269c <kfree>
c0102418:	8b 45 d8             	mov    -0x28(%ebp),%eax
c010241b:	89 04 24             	mov    %eax,(%esp)
c010241e:	e8 79 02 00 00       	call   c010269c <kfree>
c0102423:	8b 45 dc             	mov    -0x24(%ebp),%eax
c0102426:	89 04 24             	mov    %eax,(%esp)
c0102429:	e8 6e 02 00 00       	call   c010269c <kfree>
c010242e:	8b 45 e4             	mov    -0x1c(%ebp),%eax
c0102431:	89 04 24             	mov    %eax,(%esp)
c0102434:	e8 63 02 00 00       	call   c010269c <kfree>
c0102439:	8b 45 e0             	mov    -0x20(%ebp),%eax
c010243c:	89 04 24             	mov    %eax,(%esp)
c010243f:	e8 58 02 00 00       	call   c010269c <kfree>
c0102444:	e8 a8 fe ff ff       	call   c01022f1 <slob_print>
c0102449:	c9                   	leave  
c010244a:	c3                   	ret    

c010244b <slob_init>:
c010244b:	55                   	push   %ebp
c010244c:	89 e5                	mov    %esp,%ebp
c010244e:	83 ec 28             	sub    $0x28,%esp
c0102451:	c7 04 24 00 04 00 00 	movl   $0x400,(%esp)
c0102458:	e8 66 fe ff ff       	call   c01022c3 <__slob_alloc_pages>
c010245d:	89 45 f4             	mov    %eax,-0xc(%ebp)
c0102460:	83 7d f4 00          	cmpl   $0x0,-0xc(%ebp)
c0102464:	75 0c                	jne    c0102472 <slob_init+0x27>
c0102466:	c7 04 24 04 97 10 c0 	movl   $0xc0109704,(%esp)
c010246d:	e8 50 4f 00 00       	call   c01073c2 <panic>
c0102472:	8b 45 f4             	mov    -0xc(%ebp),%eax
c0102475:	0f b6 10             	movzbl (%eax),%edx
c0102478:	83 e2 fe             	and    $0xfffffffe,%edx
c010247b:	88 10                	mov    %dl,(%eax)
c010247d:	8b 45 f4             	mov    -0xc(%ebp),%eax
c0102480:	8b 10                	mov    (%eax),%edx
c0102482:	83 e2 01             	and    $0x1,%edx
c0102485:	81 ca e8 ff 7f 00    	or     $0x7fffe8,%edx
c010248b:	89 10                	mov    %edx,(%eax)
c010248d:	8b 45 f4             	mov    -0xc(%ebp),%eax
c0102490:	83 c0 04             	add    $0x4,%eax
c0102493:	c7 44 24 04 00 90 10 	movl   $0xc0109000,0x4(%esp)
c010249a:	c0 
c010249b:	89 04 24             	mov    %eax,(%esp)
c010249e:	e8 a8 fd ff ff       	call   c010224b <list_add>
c01024a3:	c9                   	leave  
c01024a4:	c3                   	ret    

c01024a5 <split_chunk>:
c01024a5:	55                   	push   %ebp
c01024a6:	89 e5                	mov    %esp,%ebp
c01024a8:	83 ec 18             	sub    $0x18,%esp
c01024ab:	8b 45 08             	mov    0x8(%ebp),%eax
c01024ae:	8b 00                	mov    (%eax),%eax
c01024b0:	d1 e8                	shr    %eax
c01024b2:	2b 45 0c             	sub    0xc(%ebp),%eax
c01024b5:	83 f8 2c             	cmp    $0x2c,%eax
c01024b8:	76 78                	jbe    c0102532 <split_chunk+0x8d>
c01024ba:	8b 55 08             	mov    0x8(%ebp),%edx
c01024bd:	8b 45 0c             	mov    0xc(%ebp),%eax
c01024c0:	01 d0                	add    %edx,%eax
c01024c2:	83 c0 0c             	add    $0xc,%eax
c01024c5:	89 45 fc             	mov    %eax,-0x4(%ebp)
c01024c8:	8b 45 fc             	mov    -0x4(%ebp),%eax
c01024cb:	0f b6 10             	movzbl (%eax),%edx
c01024ce:	83 e2 fe             	and    $0xfffffffe,%edx
c01024d1:	88 10                	mov    %dl,(%eax)
c01024d3:	8b 45 08             	mov    0x8(%ebp),%eax
c01024d6:	8b 00                	mov    (%eax),%eax
c01024d8:	d1 e8                	shr    %eax
c01024da:	2b 45 0c             	sub    0xc(%ebp),%eax
c01024dd:	83 e8 0c             	sub    $0xc,%eax
c01024e0:	25 ff ff ff 7f       	and    $0x7fffffff,%eax
c01024e5:	89 c2                	mov    %eax,%edx
c01024e7:	8b 45 fc             	mov    -0x4(%ebp),%eax
c01024ea:	8d 0c 12             	lea    (%edx,%edx,1),%ecx
c01024ed:	8b 10                	mov    (%eax),%edx
c01024ef:	83 e2 01             	and    $0x1,%edx
c01024f2:	09 ca                	or     %ecx,%edx
c01024f4:	89 10                	mov    %edx,(%eax)
c01024f6:	8b 45 08             	mov    0x8(%ebp),%eax
c01024f9:	8d 50 04             	lea    0x4(%eax),%edx
c01024fc:	8b 45 fc             	mov    -0x4(%ebp),%eax
c01024ff:	83 c0 04             	add    $0x4,%eax
c0102502:	89 54 24 04          	mov    %edx,0x4(%esp)
c0102506:	89 04 24             	mov    %eax,(%esp)
c0102509:	e8 3d fd ff ff       	call   c010224b <list_add>
c010250e:	8b 45 0c             	mov    0xc(%ebp),%eax
c0102511:	25 ff ff ff 7f       	and    $0x7fffffff,%eax
c0102516:	89 c2                	mov    %eax,%edx
c0102518:	8b 45 08             	mov    0x8(%ebp),%eax
c010251b:	8d 0c 12             	lea    (%edx,%edx,1),%ecx
c010251e:	8b 10                	mov    (%eax),%edx
c0102520:	83 e2 01             	and    $0x1,%edx
c0102523:	09 ca                	or     %ecx,%edx
c0102525:	89 10                	mov    %edx,(%eax)
c0102527:	8b 45 08             	mov    0x8(%ebp),%eax
c010252a:	0f b6 10             	movzbl (%eax),%edx
c010252d:	83 ca 01             	or     $0x1,%edx
c0102530:	88 10                	mov    %dl,(%eax)
c0102532:	c9                   	leave  
c0102533:	c3                   	ret    

c0102534 <glue_chunk>:
c0102534:	55                   	push   %ebp
c0102535:	89 e5                	mov    %esp,%ebp
c0102537:	83 ec 14             	sub    $0x14,%esp
c010253a:	8b 45 08             	mov    0x8(%ebp),%eax
c010253d:	83 c0 04             	add    $0x4,%eax
c0102540:	89 45 fc             	mov    %eax,-0x4(%ebp)
c0102543:	8b 45 fc             	mov    -0x4(%ebp),%eax
c0102546:	8b 40 04             	mov    0x4(%eax),%eax
c0102549:	3d 00 90 10 c0       	cmp    $0xc0109000,%eax
c010254e:	74 58                	je     c01025a8 <glue_chunk+0x74>
c0102550:	8b 45 fc             	mov    -0x4(%ebp),%eax
c0102553:	8b 40 04             	mov    0x4(%eax),%eax
c0102556:	83 e8 04             	sub    $0x4,%eax
c0102559:	89 45 f8             	mov    %eax,-0x8(%ebp)
c010255c:	8b 45 f8             	mov    -0x8(%ebp),%eax
c010255f:	0f b6 00             	movzbl (%eax),%eax
c0102562:	83 e0 01             	and    $0x1,%eax
c0102565:	84 c0                	test   %al,%al
c0102567:	75 3f                	jne    c01025a8 <glue_chunk+0x74>
c0102569:	8b 45 f8             	mov    -0x8(%ebp),%eax
c010256c:	8b 00                	mov    (%eax),%eax
c010256e:	d1 e8                	shr    %eax
c0102570:	89 c2                	mov    %eax,%edx
c0102572:	8b 45 08             	mov    0x8(%ebp),%eax
c0102575:	8b 00                	mov    (%eax),%eax
c0102577:	d1 e8                	shr    %eax
c0102579:	01 d0                	add    %edx,%eax
c010257b:	83 c0 0c             	add    $0xc,%eax
c010257e:	25 ff ff ff 7f       	and    $0x7fffffff,%eax
c0102583:	89 c2                	mov    %eax,%edx
c0102585:	8b 45 f8             	mov    -0x8(%ebp),%eax
c0102588:	8d 0c 12             	lea    (%edx,%edx,1),%ecx
c010258b:	8b 10                	mov    (%eax),%edx
c010258d:	83 e2 01             	and    $0x1,%edx
c0102590:	09 ca                	or     %ecx,%edx
c0102592:	89 10                	mov    %edx,(%eax)
c0102594:	8b 45 08             	mov    0x8(%ebp),%eax
c0102597:	83 c0 04             	add    $0x4,%eax
c010259a:	89 04 24             	mov    %eax,(%esp)
c010259d:	e8 e2 fc ff ff       	call   c0102284 <list_del>
c01025a2:	8b 45 f8             	mov    -0x8(%ebp),%eax
c01025a5:	89 45 08             	mov    %eax,0x8(%ebp)
c01025a8:	8b 45 fc             	mov    -0x4(%ebp),%eax
c01025ab:	8b 00                	mov    (%eax),%eax
c01025ad:	3d 00 90 10 c0       	cmp    $0xc0109000,%eax
c01025b2:	74 51                	je     c0102605 <glue_chunk+0xd1>
c01025b4:	8b 45 fc             	mov    -0x4(%ebp),%eax
c01025b7:	8b 00                	mov    (%eax),%eax
c01025b9:	83 e8 04             	sub    $0x4,%eax
c01025bc:	89 45 f4             	mov    %eax,-0xc(%ebp)
c01025bf:	8b 45 f4             	mov    -0xc(%ebp),%eax
c01025c2:	0f b6 00             	movzbl (%eax),%eax
c01025c5:	83 e0 01             	and    $0x1,%eax
c01025c8:	84 c0                	test   %al,%al
c01025ca:	75 39                	jne    c0102605 <glue_chunk+0xd1>
c01025cc:	8b 45 08             	mov    0x8(%ebp),%eax
c01025cf:	8b 00                	mov    (%eax),%eax
c01025d1:	d1 e8                	shr    %eax
c01025d3:	89 c2                	mov    %eax,%edx
c01025d5:	8b 45 f4             	mov    -0xc(%ebp),%eax
c01025d8:	8b 00                	mov    (%eax),%eax
c01025da:	d1 e8                	shr    %eax
c01025dc:	01 d0                	add    %edx,%eax
c01025de:	83 c0 0c             	add    $0xc,%eax
c01025e1:	25 ff ff ff 7f       	and    $0x7fffffff,%eax
c01025e6:	89 c2                	mov    %eax,%edx
c01025e8:	8b 45 08             	mov    0x8(%ebp),%eax
c01025eb:	8d 0c 12             	lea    (%edx,%edx,1),%ecx
c01025ee:	8b 10                	mov    (%eax),%edx
c01025f0:	83 e2 01             	and    $0x1,%edx
c01025f3:	09 ca                	or     %ecx,%edx
c01025f5:	89 10                	mov    %edx,(%eax)
c01025f7:	8b 45 f4             	mov    -0xc(%ebp),%eax
c01025fa:	83 c0 04             	add    $0x4,%eax
c01025fd:	89 04 24             	mov    %eax,(%esp)
c0102600:	e8 7f fc ff ff       	call   c0102284 <list_del>
c0102605:	c9                   	leave  
c0102606:	c3                   	ret    

c0102607 <kmalloc>:
c0102607:	55                   	push   %ebp
c0102608:	89 e5                	mov    %esp,%ebp
c010260a:	83 ec 18             	sub    $0x18,%esp
c010260d:	b8 20 00 00 00       	mov    $0x20,%eax
c0102612:	83 7d 08 20          	cmpl   $0x20,0x8(%ebp)
c0102616:	0f 43 45 08          	cmovae 0x8(%ebp),%eax
c010261a:	89 45 f8             	mov    %eax,-0x8(%ebp)
c010261d:	83 45 f8 0c          	addl   $0xc,-0x8(%ebp)
c0102621:	c7 04 24 00 90 10 c0 	movl   $0xc0109000,(%esp)
c0102628:	e8 76 fc ff ff       	call   c01022a3 <list_empty>
c010262d:	85 c0                	test   %eax,%eax
c010262f:	75 64                	jne    c0102695 <kmalloc+0x8e>
c0102631:	c7 45 fc 00 00 00 00 	movl   $0x0,-0x4(%ebp)
c0102638:	a1 00 90 10 c0       	mov    0xc0109000,%eax
c010263d:	89 45 fc             	mov    %eax,-0x4(%ebp)
c0102640:	eb 4a                	jmp    c010268c <kmalloc+0x85>
c0102642:	8b 45 fc             	mov    -0x4(%ebp),%eax
c0102645:	83 e8 04             	sub    $0x4,%eax
c0102648:	89 45 f4             	mov    %eax,-0xc(%ebp)
c010264b:	8b 45 f4             	mov    -0xc(%ebp),%eax
c010264e:	0f b6 00             	movzbl (%eax),%eax
c0102651:	83 e0 01             	and    $0x1,%eax
c0102654:	84 c0                	test   %al,%al
c0102656:	75 2c                	jne    c0102684 <kmalloc+0x7d>
c0102658:	8b 45 f4             	mov    -0xc(%ebp),%eax
c010265b:	8b 00                	mov    (%eax),%eax
c010265d:	d1 e8                	shr    %eax
c010265f:	3b 45 f8             	cmp    -0x8(%ebp),%eax
c0102662:	76 20                	jbe    c0102684 <kmalloc+0x7d>
c0102664:	8b 45 f8             	mov    -0x8(%ebp),%eax
c0102667:	89 44 24 04          	mov    %eax,0x4(%esp)
c010266b:	8b 45 f4             	mov    -0xc(%ebp),%eax
c010266e:	89 04 24             	mov    %eax,(%esp)
c0102671:	e8 2f fe ff ff       	call   c01024a5 <split_chunk>
c0102676:	8b 45 f4             	mov    -0xc(%ebp),%eax
c0102679:	83 c0 0c             	add    $0xc,%eax
c010267c:	89 45 f0             	mov    %eax,-0x10(%ebp)
c010267f:	8b 45 f0             	mov    -0x10(%ebp),%eax
c0102682:	eb 16                	jmp    c010269a <kmalloc+0x93>
c0102684:	8b 45 fc             	mov    -0x4(%ebp),%eax
c0102687:	8b 00                	mov    (%eax),%eax
c0102689:	89 45 fc             	mov    %eax,-0x4(%ebp)
c010268c:	81 7d fc 00 90 10 c0 	cmpl   $0xc0109000,-0x4(%ebp)
c0102693:	75 ad                	jne    c0102642 <kmalloc+0x3b>
c0102695:	b8 00 00 00 00       	mov    $0x0,%eax
c010269a:	c9                   	leave  
c010269b:	c3                   	ret    

c010269c <kfree>:
c010269c:	55                   	push   %ebp
c010269d:	89 e5                	mov    %esp,%ebp
c010269f:	83 ec 14             	sub    $0x14,%esp
c01026a2:	8b 45 08             	mov    0x8(%ebp),%eax
c01026a5:	83 e8 0c             	sub    $0xc,%eax
c01026a8:	89 45 fc             	mov    %eax,-0x4(%ebp)
c01026ab:	8b 45 fc             	mov    -0x4(%ebp),%eax
c01026ae:	0f b6 00             	movzbl (%eax),%eax
c01026b1:	83 e0 01             	and    $0x1,%eax
c01026b4:	84 c0                	test   %al,%al
c01026b6:	75 02                	jne    c01026ba <kfree+0x1e>
c01026b8:	eb 16                	jmp    c01026d0 <kfree+0x34>
c01026ba:	8b 45 fc             	mov    -0x4(%ebp),%eax
c01026bd:	0f b6 10             	movzbl (%eax),%edx
c01026c0:	83 e2 fe             	and    $0xfffffffe,%edx
c01026c3:	88 10                	mov    %dl,(%eax)
c01026c5:	8b 45 fc             	mov    -0x4(%ebp),%eax
c01026c8:	89 04 24             	mov    %eax,(%esp)
c01026cb:	e8 64 fe ff ff       	call   c0102534 <glue_chunk>
c01026d0:	c9                   	leave  
c01026d1:	c3                   	ret    

c01026d2 <set_bit>:
c01026d2:	55                   	push   %ebp
c01026d3:	89 e5                	mov    %esp,%ebp
c01026d5:	8b 45 0c             	mov    0xc(%ebp),%eax
c01026d8:	8b 55 08             	mov    0x8(%ebp),%edx
c01026db:	0f ab 10             	bts    %edx,(%eax)
c01026de:	5d                   	pop    %ebp
c01026df:	c3                   	ret    

c01026e0 <clear_bit>:
c01026e0:	55                   	push   %ebp
c01026e1:	89 e5                	mov    %esp,%ebp
c01026e3:	8b 45 0c             	mov    0xc(%ebp),%eax
c01026e6:	8b 55 08             	mov    0x8(%ebp),%edx
c01026e9:	0f b3 10             	btr    %edx,(%eax)
c01026ec:	5d                   	pop    %ebp
c01026ed:	c3                   	ret    

c01026ee <test_bit>:
c01026ee:	55                   	push   %ebp
c01026ef:	89 e5                	mov    %esp,%ebp
c01026f1:	83 ec 10             	sub    $0x10,%esp
c01026f4:	8b 45 0c             	mov    0xc(%ebp),%eax
c01026f7:	8b 55 08             	mov    0x8(%ebp),%edx
c01026fa:	0f a3 10             	bt     %edx,(%eax)
c01026fd:	19 c0                	sbb    %eax,%eax
c01026ff:	89 45 fc             	mov    %eax,-0x4(%ebp)
c0102702:	83 7d fc 00          	cmpl   $0x0,-0x4(%ebp)
c0102706:	0f 95 c0             	setne  %al
c0102709:	0f b6 c0             	movzbl %al,%eax
c010270c:	c9                   	leave  
c010270d:	c3                   	ret    

c010270e <atomic_read>:
c010270e:	55                   	push   %ebp
c010270f:	89 e5                	mov    %esp,%ebp
c0102711:	8b 45 08             	mov    0x8(%ebp),%eax
c0102714:	8b 00                	mov    (%eax),%eax
c0102716:	5d                   	pop    %ebp
c0102717:	c3                   	ret    

c0102718 <atomic_set>:
c0102718:	55                   	push   %ebp
c0102719:	89 e5                	mov    %esp,%ebp
c010271b:	8b 45 08             	mov    0x8(%ebp),%eax
c010271e:	8b 55 0c             	mov    0xc(%ebp),%edx
c0102721:	89 10                	mov    %edx,(%eax)
c0102723:	5d                   	pop    %ebp
c0102724:	c3                   	ret    

c0102725 <atomic_add>:
c0102725:	55                   	push   %ebp
c0102726:	89 e5                	mov    %esp,%ebp
c0102728:	8b 45 08             	mov    0x8(%ebp),%eax
c010272b:	8b 55 0c             	mov    0xc(%ebp),%edx
c010272e:	8b 4d 08             	mov    0x8(%ebp),%ecx
c0102731:	f0 01 10             	lock add %edx,(%eax)
c0102734:	5d                   	pop    %ebp
c0102735:	c3                   	ret    

c0102736 <atomic_sub>:
c0102736:	55                   	push   %ebp
c0102737:	89 e5                	mov    %esp,%ebp
c0102739:	8b 45 08             	mov    0x8(%ebp),%eax
c010273c:	8b 55 0c             	mov    0xc(%ebp),%edx
c010273f:	8b 4d 08             	mov    0x8(%ebp),%ecx
c0102742:	f0 29 10             	lock sub %edx,(%eax)
c0102745:	5d                   	pop    %ebp
c0102746:	c3                   	ret    

c0102747 <set_page_ref>:
c0102747:	55                   	push   %ebp
c0102748:	89 e5                	mov    %esp,%ebp
c010274a:	83 ec 08             	sub    $0x8,%esp
c010274d:	8b 45 08             	mov    0x8(%ebp),%eax
c0102750:	8b 55 0c             	mov    0xc(%ebp),%edx
c0102753:	89 54 24 04          	mov    %edx,0x4(%esp)
c0102757:	89 04 24             	mov    %eax,(%esp)
c010275a:	e8 b9 ff ff ff       	call   c0102718 <atomic_set>
c010275f:	c9                   	leave  
c0102760:	c3                   	ret    

c0102761 <INIT_LIST_HEAD>:
c0102761:	55                   	push   %ebp
c0102762:	89 e5                	mov    %esp,%ebp
c0102764:	8b 45 08             	mov    0x8(%ebp),%eax
c0102767:	8b 55 08             	mov    0x8(%ebp),%edx
c010276a:	89 10                	mov    %edx,(%eax)
c010276c:	8b 45 08             	mov    0x8(%ebp),%eax
c010276f:	8b 55 08             	mov    0x8(%ebp),%edx
c0102772:	89 50 04             	mov    %edx,0x4(%eax)
c0102775:	5d                   	pop    %ebp
c0102776:	c3                   	ret    

c0102777 <__list_add>:
c0102777:	55                   	push   %ebp
c0102778:	89 e5                	mov    %esp,%ebp
c010277a:	8b 45 10             	mov    0x10(%ebp),%eax
c010277d:	8b 55 08             	mov    0x8(%ebp),%edx
c0102780:	89 50 04             	mov    %edx,0x4(%eax)
c0102783:	8b 45 08             	mov    0x8(%ebp),%eax
c0102786:	8b 55 10             	mov    0x10(%ebp),%edx
c0102789:	89 10                	mov    %edx,(%eax)
c010278b:	8b 45 08             	mov    0x8(%ebp),%eax
c010278e:	8b 55 0c             	mov    0xc(%ebp),%edx
c0102791:	89 50 04             	mov    %edx,0x4(%eax)
c0102794:	8b 45 0c             	mov    0xc(%ebp),%eax
c0102797:	8b 55 08             	mov    0x8(%ebp),%edx
c010279a:	89 10                	mov    %edx,(%eax)
c010279c:	5d                   	pop    %ebp
c010279d:	c3                   	ret    

c010279e <list_add_before>:
c010279e:	55                   	push   %ebp
c010279f:	89 e5                	mov    %esp,%ebp
c01027a1:	83 ec 0c             	sub    $0xc,%esp
c01027a4:	8b 45 0c             	mov    0xc(%ebp),%eax
c01027a7:	8b 40 04             	mov    0x4(%eax),%eax
c01027aa:	8b 55 0c             	mov    0xc(%ebp),%edx
c01027ad:	89 54 24 08          	mov    %edx,0x8(%esp)
c01027b1:	89 44 24 04          	mov    %eax,0x4(%esp)
c01027b5:	8b 45 08             	mov    0x8(%ebp),%eax
c01027b8:	89 04 24             	mov    %eax,(%esp)
c01027bb:	e8 b7 ff ff ff       	call   c0102777 <__list_add>
c01027c0:	c9                   	leave  
c01027c1:	c3                   	ret    

c01027c2 <__list_del>:
c01027c2:	55                   	push   %ebp
c01027c3:	89 e5                	mov    %esp,%ebp
c01027c5:	8b 45 0c             	mov    0xc(%ebp),%eax
c01027c8:	8b 55 08             	mov    0x8(%ebp),%edx
c01027cb:	89 50 04             	mov    %edx,0x4(%eax)
c01027ce:	8b 45 08             	mov    0x8(%ebp),%eax
c01027d1:	8b 55 0c             	mov    0xc(%ebp),%edx
c01027d4:	89 10                	mov    %edx,(%eax)
c01027d6:	5d                   	pop    %ebp
c01027d7:	c3                   	ret    

c01027d8 <list_del>:
c01027d8:	55                   	push   %ebp
c01027d9:	89 e5                	mov    %esp,%ebp
c01027db:	83 ec 08             	sub    $0x8,%esp
c01027de:	8b 45 08             	mov    0x8(%ebp),%eax
c01027e1:	8b 10                	mov    (%eax),%edx
c01027e3:	8b 45 08             	mov    0x8(%ebp),%eax
c01027e6:	8b 40 04             	mov    0x4(%eax),%eax
c01027e9:	89 54 24 04          	mov    %edx,0x4(%esp)
c01027ed:	89 04 24             	mov    %eax,(%esp)
c01027f0:	e8 cd ff ff ff       	call   c01027c2 <__list_del>
c01027f5:	c9                   	leave  
c01027f6:	c3                   	ret    

c01027f7 <ff_page_init>:
c01027f7:	55                   	push   %ebp
c01027f8:	89 e5                	mov    %esp,%ebp
c01027fa:	83 ec 28             	sub    $0x28,%esp
c01027fd:	8b 45 0c             	mov    0xc(%ebp),%eax
c0102800:	89 44 24 04          	mov    %eax,0x4(%esp)
c0102804:	c7 04 24 10 b0 10 c0 	movl   $0xc010b010,(%esp)
c010280b:	e8 08 ff ff ff       	call   c0102718 <atomic_set>
c0102810:	8b 45 0c             	mov    0xc(%ebp),%eax
c0102813:	89 44 24 04          	mov    %eax,0x4(%esp)
c0102817:	c7 04 24 14 b0 10 c0 	movl   $0xc010b014,(%esp)
c010281e:	e8 f5 fe ff ff       	call   c0102718 <atomic_set>
c0102823:	8b 45 08             	mov    0x8(%ebp),%eax
c0102826:	89 04 24             	mov    %eax,(%esp)
c0102829:	e8 a5 44 00 00       	call   c0106cd3 <page_to_addr>
c010282e:	a3 08 b0 10 c0       	mov    %eax,0xc010b008
c0102833:	8b 55 0c             	mov    0xc(%ebp),%edx
c0102836:	89 d0                	mov    %edx,%eax
c0102838:	c1 e0 02             	shl    $0x2,%eax
c010283b:	01 d0                	add    %edx,%eax
c010283d:	c1 e0 02             	shl    $0x2,%eax
c0102840:	8d 50 ec             	lea    -0x14(%eax),%edx
c0102843:	8b 45 08             	mov    0x8(%ebp),%eax
c0102846:	01 d0                	add    %edx,%eax
c0102848:	89 04 24             	mov    %eax,(%esp)
c010284b:	e8 83 44 00 00       	call   c0106cd3 <page_to_addr>
c0102850:	05 00 10 00 00       	add    $0x1000,%eax
c0102855:	a3 0c b0 10 c0       	mov    %eax,0xc010b00c
c010285a:	c7 04 24 00 b0 10 c0 	movl   $0xc010b000,(%esp)
c0102861:	e8 fb fe ff ff       	call   c0102761 <INIT_LIST_HEAD>
c0102866:	8b 45 08             	mov    0x8(%ebp),%eax
c0102869:	89 45 f4             	mov    %eax,-0xc(%ebp)
c010286c:	eb 30                	jmp    c010289e <ff_page_init+0xa7>
c010286e:	8b 45 f4             	mov    -0xc(%ebp),%eax
c0102871:	83 c0 04             	add    $0x4,%eax
c0102874:	89 44 24 04          	mov    %eax,0x4(%esp)
c0102878:	c7 04 24 00 00 00 00 	movl   $0x0,(%esp)
c010287f:	e8 4e fe ff ff       	call   c01026d2 <set_bit>
c0102884:	8b 45 f4             	mov    -0xc(%ebp),%eax
c0102887:	83 c0 0c             	add    $0xc,%eax
c010288a:	c7 44 24 04 00 b0 10 	movl   $0xc010b000,0x4(%esp)
c0102891:	c0 
c0102892:	89 04 24             	mov    %eax,(%esp)
c0102895:	e8 04 ff ff ff       	call   c010279e <list_add_before>
c010289a:	83 45 f4 14          	addl   $0x14,-0xc(%ebp)
c010289e:	8b 55 0c             	mov    0xc(%ebp),%edx
c01028a1:	89 d0                	mov    %edx,%eax
c01028a3:	c1 e0 02             	shl    $0x2,%eax
c01028a6:	01 d0                	add    %edx,%eax
c01028a8:	c1 e0 02             	shl    $0x2,%eax
c01028ab:	89 c2                	mov    %eax,%edx
c01028ad:	8b 45 08             	mov    0x8(%ebp),%eax
c01028b0:	01 d0                	add    %edx,%eax
c01028b2:	3b 45 f4             	cmp    -0xc(%ebp),%eax
c01028b5:	77 b7                	ja     c010286e <ff_page_init+0x77>
c01028b7:	8b 45 08             	mov    0x8(%ebp),%eax
c01028ba:	8b 55 0c             	mov    0xc(%ebp),%edx
c01028bd:	89 50 08             	mov    %edx,0x8(%eax)
c01028c0:	8b 45 08             	mov    0x8(%ebp),%eax
c01028c3:	83 c0 04             	add    $0x4,%eax
c01028c6:	89 44 24 04          	mov    %eax,0x4(%esp)
c01028ca:	c7 04 24 01 00 00 00 	movl   $0x1,(%esp)
c01028d1:	e8 fc fd ff ff       	call   c01026d2 <set_bit>
c01028d6:	e8 2c 03 00 00       	call   c0102c07 <ff_show_memory_info>
c01028db:	c9                   	leave  
c01028dc:	c3                   	ret    

c01028dd <ff_alloc_pages>:
c01028dd:	55                   	push   %ebp
c01028de:	89 e5                	mov    %esp,%ebp
c01028e0:	83 ec 38             	sub    $0x38,%esp
c01028e3:	83 7d 08 00          	cmpl   $0x0,0x8(%ebp)
c01028e7:	74 11                	je     c01028fa <ff_alloc_pages+0x1d>
c01028e9:	c7 04 24 14 b0 10 c0 	movl   $0xc010b014,(%esp)
c01028f0:	e8 19 fe ff ff       	call   c010270e <atomic_read>
c01028f5:	3b 45 08             	cmp    0x8(%ebp),%eax
c01028f8:	73 0a                	jae    c0102904 <ff_alloc_pages+0x27>
c01028fa:	b8 00 00 00 00       	mov    $0x0,%eax
c01028ff:	e9 13 01 00 00       	jmp    c0102a17 <ff_alloc_pages+0x13a>
c0102904:	c7 45 f4 00 b0 10 c0 	movl   $0xc010b000,-0xc(%ebp)
c010290b:	90                   	nop
c010290c:	8b 45 f4             	mov    -0xc(%ebp),%eax
c010290f:	8b 00                	mov    (%eax),%eax
c0102911:	89 45 f4             	mov    %eax,-0xc(%ebp)
c0102914:	81 7d f4 00 b0 10 c0 	cmpl   $0xc010b000,-0xc(%ebp)
c010291b:	0f 84 f1 00 00 00    	je     c0102a12 <ff_alloc_pages+0x135>
c0102921:	8b 45 f4             	mov    -0xc(%ebp),%eax
c0102924:	83 e8 0c             	sub    $0xc,%eax
c0102927:	89 45 ec             	mov    %eax,-0x14(%ebp)
c010292a:	8b 45 ec             	mov    -0x14(%ebp),%eax
c010292d:	83 c0 04             	add    $0x4,%eax
c0102930:	89 44 24 04          	mov    %eax,0x4(%esp)
c0102934:	c7 04 24 01 00 00 00 	movl   $0x1,(%esp)
c010293b:	e8 ae fd ff ff       	call   c01026ee <test_bit>
c0102940:	85 c0                	test   %eax,%eax
c0102942:	74 58                	je     c010299c <ff_alloc_pages+0xbf>
c0102944:	8b 45 ec             	mov    -0x14(%ebp),%eax
c0102947:	8b 40 08             	mov    0x8(%eax),%eax
c010294a:	3b 45 08             	cmp    0x8(%ebp),%eax
c010294d:	72 4d                	jb     c010299c <ff_alloc_pages+0xbf>
c010294f:	c7 45 f0 00 00 00 00 	movl   $0x0,-0x10(%ebp)
c0102956:	eb 3c                	jmp    c0102994 <ff_alloc_pages+0xb7>
c0102958:	8b 45 f4             	mov    -0xc(%ebp),%eax
c010295b:	8b 00                	mov    (%eax),%eax
c010295d:	89 45 e8             	mov    %eax,-0x18(%ebp)
c0102960:	8b 45 f4             	mov    -0xc(%ebp),%eax
c0102963:	83 e8 0c             	sub    $0xc,%eax
c0102966:	89 45 e4             	mov    %eax,-0x1c(%ebp)
c0102969:	8b 45 e4             	mov    -0x1c(%ebp),%eax
c010296c:	83 c0 04             	add    $0x4,%eax
c010296f:	89 44 24 04          	mov    %eax,0x4(%esp)
c0102973:	c7 04 24 00 00 00 00 	movl   $0x0,(%esp)
c010297a:	e8 61 fd ff ff       	call   c01026e0 <clear_bit>
c010297f:	8b 45 f4             	mov    -0xc(%ebp),%eax
c0102982:	89 04 24             	mov    %eax,(%esp)
c0102985:	e8 4e fe ff ff       	call   c01027d8 <list_del>
c010298a:	8b 45 e8             	mov    -0x18(%ebp),%eax
c010298d:	89 45 f4             	mov    %eax,-0xc(%ebp)
c0102990:	83 45 f0 01          	addl   $0x1,-0x10(%ebp)
c0102994:	8b 45 f0             	mov    -0x10(%ebp),%eax
c0102997:	3b 45 08             	cmp    0x8(%ebp),%eax
c010299a:	72 bc                	jb     c0102958 <ff_alloc_pages+0x7b>
c010299c:	8b 45 ec             	mov    -0x14(%ebp),%eax
c010299f:	8b 40 08             	mov    0x8(%eax),%eax
c01029a2:	3b 45 08             	cmp    0x8(%ebp),%eax
c01029a5:	76 2b                	jbe    c01029d2 <ff_alloc_pages+0xf5>
c01029a7:	8b 45 f4             	mov    -0xc(%ebp),%eax
c01029aa:	83 e8 0c             	sub    $0xc,%eax
c01029ad:	83 c0 04             	add    $0x4,%eax
c01029b0:	89 44 24 04          	mov    %eax,0x4(%esp)
c01029b4:	c7 04 24 01 00 00 00 	movl   $0x1,(%esp)
c01029bb:	e8 12 fd ff ff       	call   c01026d2 <set_bit>
c01029c0:	8b 45 f4             	mov    -0xc(%ebp),%eax
c01029c3:	8d 50 f4             	lea    -0xc(%eax),%edx
c01029c6:	8b 45 ec             	mov    -0x14(%ebp),%eax
c01029c9:	8b 40 08             	mov    0x8(%eax),%eax
c01029cc:	2b 45 08             	sub    0x8(%ebp),%eax
c01029cf:	89 42 08             	mov    %eax,0x8(%edx)
c01029d2:	8b 45 ec             	mov    -0x14(%ebp),%eax
c01029d5:	c7 40 08 00 00 00 00 	movl   $0x0,0x8(%eax)
c01029dc:	8b 45 ec             	mov    -0x14(%ebp),%eax
c01029df:	83 c0 04             	add    $0x4,%eax
c01029e2:	89 44 24 04          	mov    %eax,0x4(%esp)
c01029e6:	c7 04 24 01 00 00 00 	movl   $0x1,(%esp)
c01029ed:	e8 ee fc ff ff       	call   c01026e0 <clear_bit>
c01029f2:	8b 45 08             	mov    0x8(%ebp),%eax
c01029f5:	89 44 24 04          	mov    %eax,0x4(%esp)
c01029f9:	c7 04 24 14 b0 10 c0 	movl   $0xc010b014,(%esp)
c0102a00:	e8 31 fd ff ff       	call   c0102736 <atomic_sub>
c0102a05:	8b 45 ec             	mov    -0x14(%ebp),%eax
c0102a08:	89 04 24             	mov    %eax,(%esp)
c0102a0b:	e8 c3 42 00 00       	call   c0106cd3 <page_to_addr>
c0102a10:	eb 05                	jmp    c0102a17 <ff_alloc_pages+0x13a>
c0102a12:	b8 00 00 00 00       	mov    $0x0,%eax
c0102a17:	c9                   	leave  
c0102a18:	c3                   	ret    

c0102a19 <ff_free_pages>:
c0102a19:	55                   	push   %ebp
c0102a1a:	89 e5                	mov    %esp,%ebp
c0102a1c:	83 ec 28             	sub    $0x28,%esp
c0102a1f:	83 7d 0c 00          	cmpl   $0x0,0xc(%ebp)
c0102a23:	75 05                	jne    c0102a2a <ff_free_pages+0x11>
c0102a25:	e9 c7 01 00 00       	jmp    c0102bf1 <ff_free_pages+0x1d8>
c0102a2a:	8b 45 08             	mov    0x8(%ebp),%eax
c0102a2d:	89 04 24             	mov    %eax,(%esp)
c0102a30:	e8 57 42 00 00       	call   c0106c8c <addr_to_page>
c0102a35:	89 45 ec             	mov    %eax,-0x14(%ebp)
c0102a38:	8b 45 ec             	mov    -0x14(%ebp),%eax
c0102a3b:	83 c0 04             	add    $0x4,%eax
c0102a3e:	89 44 24 04          	mov    %eax,0x4(%esp)
c0102a42:	c7 04 24 00 00 00 00 	movl   $0x0,(%esp)
c0102a49:	e8 a0 fc ff ff       	call   c01026ee <test_bit>
c0102a4e:	85 c0                	test   %eax,%eax
c0102a50:	74 0c                	je     c0102a5e <ff_free_pages+0x45>
c0102a52:	c7 04 24 3e 97 10 c0 	movl   $0xc010973e,(%esp)
c0102a59:	e8 64 49 00 00       	call   c01073c2 <panic>
c0102a5e:	c7 44 24 04 00 00 00 	movl   $0x0,0x4(%esp)
c0102a65:	00 
c0102a66:	8b 45 ec             	mov    -0x14(%ebp),%eax
c0102a69:	89 04 24             	mov    %eax,(%esp)
c0102a6c:	e8 d6 fc ff ff       	call   c0102747 <set_page_ref>
c0102a71:	8b 45 ec             	mov    -0x14(%ebp),%eax
c0102a74:	83 c0 04             	add    $0x4,%eax
c0102a77:	89 44 24 04          	mov    %eax,0x4(%esp)
c0102a7b:	c7 04 24 01 00 00 00 	movl   $0x1,(%esp)
c0102a82:	e8 4b fc ff ff       	call   c01026d2 <set_bit>
c0102a87:	8b 45 ec             	mov    -0x14(%ebp),%eax
c0102a8a:	8b 55 0c             	mov    0xc(%ebp),%edx
c0102a8d:	89 50 08             	mov    %edx,0x8(%eax)
c0102a90:	c7 45 f0 00 b0 10 c0 	movl   $0xc010b000,-0x10(%ebp)
c0102a97:	eb 13                	jmp    c0102aac <ff_free_pages+0x93>
c0102a99:	8b 45 f0             	mov    -0x10(%ebp),%eax
c0102a9c:	83 e8 0c             	sub    $0xc,%eax
c0102a9f:	89 45 f4             	mov    %eax,-0xc(%ebp)
c0102aa2:	8b 45 f4             	mov    -0xc(%ebp),%eax
c0102aa5:	3b 45 ec             	cmp    -0x14(%ebp),%eax
c0102aa8:	76 02                	jbe    c0102aac <ff_free_pages+0x93>
c0102aaa:	eb 11                	jmp    c0102abd <ff_free_pages+0xa4>
c0102aac:	8b 45 f0             	mov    -0x10(%ebp),%eax
c0102aaf:	8b 00                	mov    (%eax),%eax
c0102ab1:	89 45 f0             	mov    %eax,-0x10(%ebp)
c0102ab4:	81 7d f0 00 b0 10 c0 	cmpl   $0xc010b000,-0x10(%ebp)
c0102abb:	75 dc                	jne    c0102a99 <ff_free_pages+0x80>
c0102abd:	8b 45 ec             	mov    -0x14(%ebp),%eax
c0102ac0:	89 45 f4             	mov    %eax,-0xc(%ebp)
c0102ac3:	eb 19                	jmp    c0102ade <ff_free_pages+0xc5>
c0102ac5:	8b 45 f4             	mov    -0xc(%ebp),%eax
c0102ac8:	8d 50 0c             	lea    0xc(%eax),%edx
c0102acb:	8b 45 f0             	mov    -0x10(%ebp),%eax
c0102ace:	89 44 24 04          	mov    %eax,0x4(%esp)
c0102ad2:	89 14 24             	mov    %edx,(%esp)
c0102ad5:	e8 c4 fc ff ff       	call   c010279e <list_add_before>
c0102ada:	83 45 f4 14          	addl   $0x14,-0xc(%ebp)
c0102ade:	8b 55 0c             	mov    0xc(%ebp),%edx
c0102ae1:	89 d0                	mov    %edx,%eax
c0102ae3:	c1 e0 02             	shl    $0x2,%eax
c0102ae6:	01 d0                	add    %edx,%eax
c0102ae8:	c1 e0 02             	shl    $0x2,%eax
c0102aeb:	89 c2                	mov    %eax,%edx
c0102aed:	8b 45 ec             	mov    -0x14(%ebp),%eax
c0102af0:	01 d0                	add    %edx,%eax
c0102af2:	3b 45 f4             	cmp    -0xc(%ebp),%eax
c0102af5:	77 ce                	ja     c0102ac5 <ff_free_pages+0xac>
c0102af7:	8b 45 f0             	mov    -0x10(%ebp),%eax
c0102afa:	83 e8 0c             	sub    $0xc,%eax
c0102afd:	89 45 f4             	mov    %eax,-0xc(%ebp)
c0102b00:	8b 55 0c             	mov    0xc(%ebp),%edx
c0102b03:	89 d0                	mov    %edx,%eax
c0102b05:	c1 e0 02             	shl    $0x2,%eax
c0102b08:	01 d0                	add    %edx,%eax
c0102b0a:	c1 e0 02             	shl    $0x2,%eax
c0102b0d:	89 c2                	mov    %eax,%edx
c0102b0f:	8b 45 ec             	mov    -0x14(%ebp),%eax
c0102b12:	01 d0                	add    %edx,%eax
c0102b14:	3b 45 f4             	cmp    -0xc(%ebp),%eax
c0102b17:	75 34                	jne    c0102b4d <ff_free_pages+0x134>
c0102b19:	8b 45 ec             	mov    -0x14(%ebp),%eax
c0102b1c:	8b 50 08             	mov    0x8(%eax),%edx
c0102b1f:	8b 45 f4             	mov    -0xc(%ebp),%eax
c0102b22:	8b 40 08             	mov    0x8(%eax),%eax
c0102b25:	01 c2                	add    %eax,%edx
c0102b27:	8b 45 ec             	mov    -0x14(%ebp),%eax
c0102b2a:	89 50 08             	mov    %edx,0x8(%eax)
c0102b2d:	8b 45 f4             	mov    -0xc(%ebp),%eax
c0102b30:	83 c0 04             	add    $0x4,%eax
c0102b33:	89 44 24 04          	mov    %eax,0x4(%esp)
c0102b37:	c7 04 24 01 00 00 00 	movl   $0x1,(%esp)
c0102b3e:	e8 9d fb ff ff       	call   c01026e0 <clear_bit>
c0102b43:	8b 45 f4             	mov    -0xc(%ebp),%eax
c0102b46:	c7 40 08 00 00 00 00 	movl   $0x0,0x8(%eax)
c0102b4d:	8b 45 ec             	mov    -0x14(%ebp),%eax
c0102b50:	8b 40 10             	mov    0x10(%eax),%eax
c0102b53:	89 45 f0             	mov    %eax,-0x10(%ebp)
c0102b56:	8b 45 f0             	mov    -0x10(%ebp),%eax
c0102b59:	83 e8 0c             	sub    $0xc,%eax
c0102b5c:	89 45 f4             	mov    %eax,-0xc(%ebp)
c0102b5f:	81 7d f0 00 b0 10 c0 	cmpl   $0xc010b000,-0x10(%ebp)
c0102b66:	74 76                	je     c0102bde <ff_free_pages+0x1c5>
c0102b68:	8b 45 ec             	mov    -0x14(%ebp),%eax
c0102b6b:	83 e8 14             	sub    $0x14,%eax
c0102b6e:	3b 45 f4             	cmp    -0xc(%ebp),%eax
c0102b71:	75 6b                	jne    c0102bde <ff_free_pages+0x1c5>
c0102b73:	eb 60                	jmp    c0102bd5 <ff_free_pages+0x1bc>
c0102b75:	8b 45 f4             	mov    -0xc(%ebp),%eax
c0102b78:	83 c0 04             	add    $0x4,%eax
c0102b7b:	89 44 24 04          	mov    %eax,0x4(%esp)
c0102b7f:	c7 04 24 01 00 00 00 	movl   $0x1,(%esp)
c0102b86:	e8 63 fb ff ff       	call   c01026ee <test_bit>
c0102b8b:	85 c0                	test   %eax,%eax
c0102b8d:	74 34                	je     c0102bc3 <ff_free_pages+0x1aa>
c0102b8f:	8b 45 f4             	mov    -0xc(%ebp),%eax
c0102b92:	8b 50 08             	mov    0x8(%eax),%edx
c0102b95:	8b 45 ec             	mov    -0x14(%ebp),%eax
c0102b98:	8b 40 08             	mov    0x8(%eax),%eax
c0102b9b:	01 c2                	add    %eax,%edx
c0102b9d:	8b 45 f4             	mov    -0xc(%ebp),%eax
c0102ba0:	89 50 08             	mov    %edx,0x8(%eax)
c0102ba3:	8b 45 ec             	mov    -0x14(%ebp),%eax
c0102ba6:	83 c0 04             	add    $0x4,%eax
c0102ba9:	89 44 24 04          	mov    %eax,0x4(%esp)
c0102bad:	c7 04 24 01 00 00 00 	movl   $0x1,(%esp)
c0102bb4:	e8 27 fb ff ff       	call   c01026e0 <clear_bit>
c0102bb9:	8b 45 ec             	mov    -0x14(%ebp),%eax
c0102bbc:	c7 40 08 00 00 00 00 	movl   $0x0,0x8(%eax)
c0102bc3:	8b 45 f0             	mov    -0x10(%ebp),%eax
c0102bc6:	8b 40 04             	mov    0x4(%eax),%eax
c0102bc9:	89 45 f0             	mov    %eax,-0x10(%ebp)
c0102bcc:	8b 45 f0             	mov    -0x10(%ebp),%eax
c0102bcf:	83 e8 0c             	sub    $0xc,%eax
c0102bd2:	89 45 f4             	mov    %eax,-0xc(%ebp)
c0102bd5:	81 7d f0 00 b0 10 c0 	cmpl   $0xc010b000,-0x10(%ebp)
c0102bdc:	75 97                	jne    c0102b75 <ff_free_pages+0x15c>
c0102bde:	8b 45 0c             	mov    0xc(%ebp),%eax
c0102be1:	89 44 24 04          	mov    %eax,0x4(%esp)
c0102be5:	c7 04 24 14 b0 10 c0 	movl   $0xc010b014,(%esp)
c0102bec:	e8 34 fb ff ff       	call   c0102725 <atomic_add>
c0102bf1:	c9                   	leave  
c0102bf2:	c3                   	ret    

c0102bf3 <ff_free_pages_count>:
c0102bf3:	55                   	push   %ebp
c0102bf4:	89 e5                	mov    %esp,%ebp
c0102bf6:	83 ec 04             	sub    $0x4,%esp
c0102bf9:	c7 04 24 14 b0 10 c0 	movl   $0xc010b014,(%esp)
c0102c00:	e8 09 fb ff ff       	call   c010270e <atomic_read>
c0102c05:	c9                   	leave  
c0102c06:	c3                   	ret    

c0102c07 <ff_show_memory_info>:
c0102c07:	55                   	push   %ebp
c0102c08:	89 e5                	mov    %esp,%ebp
c0102c0a:	53                   	push   %ebx
c0102c0b:	83 ec 14             	sub    $0x14,%esp
c0102c0e:	8b 15 0c b0 10 c0    	mov    0xc010b00c,%edx
c0102c14:	a1 08 b0 10 c0       	mov    0xc010b008,%eax
c0102c19:	89 54 24 08          	mov    %edx,0x8(%esp)
c0102c1d:	89 44 24 04          	mov    %eax,0x4(%esp)
c0102c21:	c7 04 24 54 97 10 c0 	movl   $0xc0109754,(%esp)
c0102c28:	e8 7a 2f 00 00       	call   c0105ba7 <printk>
c0102c2d:	c7 04 24 10 b0 10 c0 	movl   $0xc010b010,(%esp)
c0102c34:	e8 d5 fa ff ff       	call   c010270e <atomic_read>
c0102c39:	8d 1c 85 00 00 00 00 	lea    0x0(,%eax,4),%ebx
c0102c40:	c7 04 24 10 b0 10 c0 	movl   $0xc010b010,(%esp)
c0102c47:	e8 c2 fa ff ff       	call   c010270e <atomic_read>
c0102c4c:	89 5c 24 08          	mov    %ebx,0x8(%esp)
c0102c50:	89 44 24 04          	mov    %eax,0x4(%esp)
c0102c54:	c7 04 24 84 97 10 c0 	movl   $0xc0109784,(%esp)
c0102c5b:	e8 47 2f 00 00       	call   c0105ba7 <printk>
c0102c60:	83 c4 14             	add    $0x14,%esp
c0102c63:	5b                   	pop    %ebx
c0102c64:	5d                   	pop    %ebp
c0102c65:	c3                   	ret    

c0102c66 <ff_show_management_info>:
c0102c66:	55                   	push   %ebp
c0102c67:	89 e5                	mov    %esp,%ebp
c0102c69:	56                   	push   %esi
c0102c6a:	53                   	push   %ebx
c0102c6b:	83 ec 10             	sub    $0x10,%esp
c0102c6e:	c7 04 24 10 b0 10 c0 	movl   $0xc010b010,(%esp)
c0102c75:	e8 94 fa ff ff       	call   c010270e <atomic_read>
c0102c7a:	89 c3                	mov    %eax,%ebx
c0102c7c:	c7 04 24 14 b0 10 c0 	movl   $0xc010b014,(%esp)
c0102c83:	e8 86 fa ff ff       	call   c010270e <atomic_read>
c0102c88:	29 c3                	sub    %eax,%ebx
c0102c8a:	89 d8                	mov    %ebx,%eax
c0102c8c:	8d 34 85 00 00 00 00 	lea    0x0(,%eax,4),%esi
c0102c93:	c7 04 24 10 b0 10 c0 	movl   $0xc010b010,(%esp)
c0102c9a:	e8 6f fa ff ff       	call   c010270e <atomic_read>
c0102c9f:	89 c3                	mov    %eax,%ebx
c0102ca1:	c7 04 24 14 b0 10 c0 	movl   $0xc010b014,(%esp)
c0102ca8:	e8 61 fa ff ff       	call   c010270e <atomic_read>
c0102cad:	29 c3                	sub    %eax,%ebx
c0102caf:	89 d8                	mov    %ebx,%eax
c0102cb1:	89 74 24 08          	mov    %esi,0x8(%esp)
c0102cb5:	89 44 24 04          	mov    %eax,0x4(%esp)
c0102cb9:	c7 04 24 b4 97 10 c0 	movl   $0xc01097b4,(%esp)
c0102cc0:	e8 e2 2e 00 00       	call   c0105ba7 <printk>
c0102cc5:	83 c4 10             	add    $0x10,%esp
c0102cc8:	5b                   	pop    %ebx
c0102cc9:	5e                   	pop    %esi
c0102cca:	5d                   	pop    %ebp
c0102ccb:	c3                   	ret    

c0102ccc <ff_test_mm>:
c0102ccc:	55                   	push   %ebp
c0102ccd:	89 e5                	mov    %esp,%ebp
c0102ccf:	83 ec 28             	sub    $0x28,%esp
c0102cd2:	a1 08 90 10 c0       	mov    0xc0109008,%eax
c0102cd7:	89 44 24 04          	mov    %eax,0x4(%esp)
c0102cdb:	c7 04 24 e3 97 10 c0 	movl   $0xc01097e3,(%esp)
c0102ce2:	e8 c0 2e 00 00       	call   c0105ba7 <printk>
c0102ce7:	c7 04 24 01 00 00 00 	movl   $0x1,(%esp)
c0102cee:	e8 ea fb ff ff       	call   c01028dd <ff_alloc_pages>
c0102cf3:	89 45 f4             	mov    %eax,-0xc(%ebp)
c0102cf6:	8b 45 f4             	mov    -0xc(%ebp),%eax
c0102cf9:	89 44 24 04          	mov    %eax,0x4(%esp)
c0102cfd:	c7 04 24 f3 97 10 c0 	movl   $0xc01097f3,(%esp)
c0102d04:	e8 9e 2e 00 00       	call   c0105ba7 <printk>
c0102d09:	e8 58 ff ff ff       	call   c0102c66 <ff_show_management_info>
c0102d0e:	c7 04 24 02 00 00 00 	movl   $0x2,(%esp)
c0102d15:	e8 c3 fb ff ff       	call   c01028dd <ff_alloc_pages>
c0102d1a:	89 45 f0             	mov    %eax,-0x10(%ebp)
c0102d1d:	8b 45 f0             	mov    -0x10(%ebp),%eax
c0102d20:	89 44 24 04          	mov    %eax,0x4(%esp)
c0102d24:	c7 04 24 0a 98 10 c0 	movl   $0xc010980a,(%esp)
c0102d2b:	e8 77 2e 00 00       	call   c0105ba7 <printk>
c0102d30:	e8 31 ff ff ff       	call   c0102c66 <ff_show_management_info>
c0102d35:	8b 45 f4             	mov    -0xc(%ebp),%eax
c0102d38:	89 44 24 04          	mov    %eax,0x4(%esp)
c0102d3c:	c7 04 24 21 98 10 c0 	movl   $0xc0109821,(%esp)
c0102d43:	e8 5f 2e 00 00       	call   c0105ba7 <printk>
c0102d48:	c7 44 24 04 01 00 00 	movl   $0x1,0x4(%esp)
c0102d4f:	00 
c0102d50:	8b 45 f4             	mov    -0xc(%ebp),%eax
c0102d53:	89 04 24             	mov    %eax,(%esp)
c0102d56:	e8 be fc ff ff       	call   c0102a19 <ff_free_pages>
c0102d5b:	e8 06 ff ff ff       	call   c0102c66 <ff_show_management_info>
c0102d60:	8b 45 f0             	mov    -0x10(%ebp),%eax
c0102d63:	89 44 24 04          	mov    %eax,0x4(%esp)
c0102d67:	c7 04 24 37 98 10 c0 	movl   $0xc0109837,(%esp)
c0102d6e:	e8 34 2e 00 00       	call   c0105ba7 <printk>
c0102d73:	c7 44 24 04 02 00 00 	movl   $0x2,0x4(%esp)
c0102d7a:	00 
c0102d7b:	8b 45 f0             	mov    -0x10(%ebp),%eax
c0102d7e:	89 04 24             	mov    %eax,(%esp)
c0102d81:	e8 93 fc ff ff       	call   c0102a19 <ff_free_pages>
c0102d86:	e8 db fe ff ff       	call   c0102c66 <ff_show_management_info>
c0102d8b:	c7 04 24 0a 00 00 00 	movl   $0xa,(%esp)
c0102d92:	e8 46 fb ff ff       	call   c01028dd <ff_alloc_pages>
c0102d97:	89 45 ec             	mov    %eax,-0x14(%ebp)
c0102d9a:	8b 45 ec             	mov    -0x14(%ebp),%eax
c0102d9d:	89 44 24 04          	mov    %eax,0x4(%esp)
c0102da1:	c7 04 24 4d 98 10 c0 	movl   $0xc010984d,(%esp)
c0102da8:	e8 fa 2d 00 00       	call   c0105ba7 <printk>
c0102dad:	e8 b4 fe ff ff       	call   c0102c66 <ff_show_management_info>
c0102db2:	8b 45 ec             	mov    -0x14(%ebp),%eax
c0102db5:	89 44 24 04          	mov    %eax,0x4(%esp)
c0102db9:	c7 04 24 65 98 10 c0 	movl   $0xc0109865,(%esp)
c0102dc0:	e8 e2 2d 00 00       	call   c0105ba7 <printk>
c0102dc5:	c7 44 24 04 0a 00 00 	movl   $0xa,0x4(%esp)
c0102dcc:	00 
c0102dcd:	8b 45 ec             	mov    -0x14(%ebp),%eax
c0102dd0:	89 04 24             	mov    %eax,(%esp)
c0102dd3:	e8 41 fc ff ff       	call   c0102a19 <ff_free_pages>
c0102dd8:	e8 89 fe ff ff       	call   c0102c66 <ff_show_management_info>
c0102ddd:	c9                   	leave  
c0102dde:	c3                   	ret    

c0102ddf <mm_init>:
c0102ddf:	55                   	push   %ebp
c0102de0:	89 e5                	mov    %esp,%ebp
c0102de2:	83 ec 08             	sub    $0x8,%esp
c0102de5:	e8 ce 3a 00 00       	call   c01068b8 <pmm_init>
c0102dea:	e8 36 42 00 00       	call   c0107025 <vmm_init>
c0102def:	e8 57 f6 ff ff       	call   c010244b <slob_init>
c0102df4:	c9                   	leave  
c0102df5:	c3                   	ret    

c0102df6 <set_bit>:
c0102df6:	55                   	push   %ebp
c0102df7:	89 e5                	mov    %esp,%ebp
c0102df9:	8b 45 0c             	mov    0xc(%ebp),%eax
c0102dfc:	8b 55 08             	mov    0x8(%ebp),%edx
c0102dff:	0f ab 10             	bts    %edx,(%eax)
c0102e02:	5d                   	pop    %ebp
c0102e03:	c3                   	ret    

c0102e04 <clear_bit>:
c0102e04:	55                   	push   %ebp
c0102e05:	89 e5                	mov    %esp,%ebp
c0102e07:	8b 45 0c             	mov    0xc(%ebp),%eax
c0102e0a:	8b 55 08             	mov    0x8(%ebp),%edx
c0102e0d:	0f b3 10             	btr    %edx,(%eax)
c0102e10:	5d                   	pop    %ebp
c0102e11:	c3                   	ret    

c0102e12 <test_bit>:
c0102e12:	55                   	push   %ebp
c0102e13:	89 e5                	mov    %esp,%ebp
c0102e15:	83 ec 10             	sub    $0x10,%esp
c0102e18:	8b 45 0c             	mov    0xc(%ebp),%eax
c0102e1b:	8b 55 08             	mov    0x8(%ebp),%edx
c0102e1e:	0f a3 10             	bt     %edx,(%eax)
c0102e21:	19 c0                	sbb    %eax,%eax
c0102e23:	89 45 fc             	mov    %eax,-0x4(%ebp)
c0102e26:	83 7d fc 00          	cmpl   $0x0,-0x4(%ebp)
c0102e2a:	0f 95 c0             	setne  %al
c0102e2d:	0f b6 c0             	movzbl %al,%eax
c0102e30:	c9                   	leave  
c0102e31:	c3                   	ret    

c0102e32 <atomic_read>:
c0102e32:	55                   	push   %ebp
c0102e33:	89 e5                	mov    %esp,%ebp
c0102e35:	8b 45 08             	mov    0x8(%ebp),%eax
c0102e38:	8b 00                	mov    (%eax),%eax
c0102e3a:	5d                   	pop    %ebp
c0102e3b:	c3                   	ret    

c0102e3c <atomic_set>:
c0102e3c:	55                   	push   %ebp
c0102e3d:	89 e5                	mov    %esp,%ebp
c0102e3f:	8b 45 08             	mov    0x8(%ebp),%eax
c0102e42:	8b 55 0c             	mov    0xc(%ebp),%edx
c0102e45:	89 10                	mov    %edx,(%eax)
c0102e47:	5d                   	pop    %ebp
c0102e48:	c3                   	ret    

c0102e49 <atomic_add>:
c0102e49:	55                   	push   %ebp
c0102e4a:	89 e5                	mov    %esp,%ebp
c0102e4c:	8b 45 08             	mov    0x8(%ebp),%eax
c0102e4f:	8b 55 0c             	mov    0xc(%ebp),%edx
c0102e52:	8b 4d 08             	mov    0x8(%ebp),%ecx
c0102e55:	f0 01 10             	lock add %edx,(%eax)
c0102e58:	5d                   	pop    %ebp
c0102e59:	c3                   	ret    

c0102e5a <atomic_sub>:
c0102e5a:	55                   	push   %ebp
c0102e5b:	89 e5                	mov    %esp,%ebp
c0102e5d:	8b 45 08             	mov    0x8(%ebp),%eax
c0102e60:	8b 55 0c             	mov    0xc(%ebp),%edx
c0102e63:	8b 4d 08             	mov    0x8(%ebp),%ecx
c0102e66:	f0 29 10             	lock sub %edx,(%eax)
c0102e69:	5d                   	pop    %ebp
c0102e6a:	c3                   	ret    

c0102e6b <atomic_inc>:
c0102e6b:	55                   	push   %ebp
c0102e6c:	89 e5                	mov    %esp,%ebp
c0102e6e:	8b 45 08             	mov    0x8(%ebp),%eax
c0102e71:	8b 55 08             	mov    0x8(%ebp),%edx
c0102e74:	f0 ff 00             	lock incl (%eax)
c0102e77:	5d                   	pop    %ebp
c0102e78:	c3                   	ret    

c0102e79 <atomic_dec>:
c0102e79:	55                   	push   %ebp
c0102e7a:	89 e5                	mov    %esp,%ebp
c0102e7c:	8b 45 08             	mov    0x8(%ebp),%eax
c0102e7f:	8b 55 08             	mov    0x8(%ebp),%edx
c0102e82:	f0 ff 08             	lock decl (%eax)
c0102e85:	5d                   	pop    %ebp
c0102e86:	c3                   	ret    

c0102e87 <set_page_ref>:
c0102e87:	55                   	push   %ebp
c0102e88:	89 e5                	mov    %esp,%ebp
c0102e8a:	83 ec 08             	sub    $0x8,%esp
c0102e8d:	8b 45 08             	mov    0x8(%ebp),%eax
c0102e90:	8b 55 0c             	mov    0xc(%ebp),%edx
c0102e93:	89 54 24 04          	mov    %edx,0x4(%esp)
c0102e97:	89 04 24             	mov    %eax,(%esp)
c0102e9a:	e8 9d ff ff ff       	call   c0102e3c <atomic_set>
c0102e9f:	c9                   	leave  
c0102ea0:	c3                   	ret    

c0102ea1 <INIT_LIST_HEAD>:
c0102ea1:	55                   	push   %ebp
c0102ea2:	89 e5                	mov    %esp,%ebp
c0102ea4:	8b 45 08             	mov    0x8(%ebp),%eax
c0102ea7:	8b 55 08             	mov    0x8(%ebp),%edx
c0102eaa:	89 10                	mov    %edx,(%eax)
c0102eac:	8b 45 08             	mov    0x8(%ebp),%eax
c0102eaf:	8b 55 08             	mov    0x8(%ebp),%edx
c0102eb2:	89 50 04             	mov    %edx,0x4(%eax)
c0102eb5:	5d                   	pop    %ebp
c0102eb6:	c3                   	ret    

c0102eb7 <__list_add>:
c0102eb7:	55                   	push   %ebp
c0102eb8:	89 e5                	mov    %esp,%ebp
c0102eba:	8b 45 10             	mov    0x10(%ebp),%eax
c0102ebd:	8b 55 08             	mov    0x8(%ebp),%edx
c0102ec0:	89 50 04             	mov    %edx,0x4(%eax)
c0102ec3:	8b 45 08             	mov    0x8(%ebp),%eax
c0102ec6:	8b 55 10             	mov    0x10(%ebp),%edx
c0102ec9:	89 10                	mov    %edx,(%eax)
c0102ecb:	8b 45 08             	mov    0x8(%ebp),%eax
c0102ece:	8b 55 0c             	mov    0xc(%ebp),%edx
c0102ed1:	89 50 04             	mov    %edx,0x4(%eax)
c0102ed4:	8b 45 0c             	mov    0xc(%ebp),%eax
c0102ed7:	8b 55 08             	mov    0x8(%ebp),%edx
c0102eda:	89 10                	mov    %edx,(%eax)
c0102edc:	5d                   	pop    %ebp
c0102edd:	c3                   	ret    

c0102ede <list_add>:
c0102ede:	55                   	push   %ebp
c0102edf:	89 e5                	mov    %esp,%ebp
c0102ee1:	83 ec 0c             	sub    $0xc,%esp
c0102ee4:	8b 45 0c             	mov    0xc(%ebp),%eax
c0102ee7:	8b 00                	mov    (%eax),%eax
c0102ee9:	89 44 24 08          	mov    %eax,0x8(%esp)
c0102eed:	8b 45 0c             	mov    0xc(%ebp),%eax
c0102ef0:	89 44 24 04          	mov    %eax,0x4(%esp)
c0102ef4:	8b 45 08             	mov    0x8(%ebp),%eax
c0102ef7:	89 04 24             	mov    %eax,(%esp)
c0102efa:	e8 b8 ff ff ff       	call   c0102eb7 <__list_add>
c0102eff:	c9                   	leave  
c0102f00:	c3                   	ret    

c0102f01 <__list_del>:
c0102f01:	55                   	push   %ebp
c0102f02:	89 e5                	mov    %esp,%ebp
c0102f04:	8b 45 0c             	mov    0xc(%ebp),%eax
c0102f07:	8b 55 08             	mov    0x8(%ebp),%edx
c0102f0a:	89 50 04             	mov    %edx,0x4(%eax)
c0102f0d:	8b 45 08             	mov    0x8(%ebp),%eax
c0102f10:	8b 55 0c             	mov    0xc(%ebp),%edx
c0102f13:	89 10                	mov    %edx,(%eax)
c0102f15:	5d                   	pop    %ebp
c0102f16:	c3                   	ret    

c0102f17 <list_del>:
c0102f17:	55                   	push   %ebp
c0102f18:	89 e5                	mov    %esp,%ebp
c0102f1a:	83 ec 08             	sub    $0x8,%esp
c0102f1d:	8b 45 08             	mov    0x8(%ebp),%eax
c0102f20:	8b 10                	mov    (%eax),%edx
c0102f22:	8b 45 08             	mov    0x8(%ebp),%eax
c0102f25:	8b 40 04             	mov    0x4(%eax),%eax
c0102f28:	89 54 24 04          	mov    %edx,0x4(%esp)
c0102f2c:	89 04 24             	mov    %eax,(%esp)
c0102f2f:	e8 cd ff ff ff       	call   c0102f01 <__list_del>
c0102f34:	c9                   	leave  
c0102f35:	c3                   	ret    

c0102f36 <list_empty>:
c0102f36:	55                   	push   %ebp
c0102f37:	89 e5                	mov    %esp,%ebp
c0102f39:	8b 45 08             	mov    0x8(%ebp),%eax
c0102f3c:	8b 00                	mov    (%eax),%eax
c0102f3e:	3b 45 08             	cmp    0x8(%ebp),%eax
c0102f41:	0f 94 c0             	sete   %al
c0102f44:	0f b6 c0             	movzbl %al,%eax
c0102f47:	5d                   	pop    %ebp
c0102f48:	c3                   	ret    

c0102f49 <buddy_page_init>:
c0102f49:	55                   	push   %ebp
c0102f4a:	89 e5                	mov    %esp,%ebp
c0102f4c:	83 ec 28             	sub    $0x28,%esp
c0102f4f:	8b 45 0c             	mov    0xc(%ebp),%eax
c0102f52:	89 44 24 04          	mov    %eax,0x4(%esp)
c0102f56:	c7 04 24 b0 b0 10 c0 	movl   $0xc010b0b0,(%esp)
c0102f5d:	e8 da fe ff ff       	call   c0102e3c <atomic_set>
c0102f62:	8b 45 0c             	mov    0xc(%ebp),%eax
c0102f65:	89 44 24 04          	mov    %eax,0x4(%esp)
c0102f69:	c7 04 24 b4 b0 10 c0 	movl   $0xc010b0b4,(%esp)
c0102f70:	e8 c7 fe ff ff       	call   c0102e3c <atomic_set>
c0102f75:	8b 45 08             	mov    0x8(%ebp),%eax
c0102f78:	a3 a4 b0 10 c0       	mov    %eax,0xc010b0a4
c0102f7d:	8b 45 08             	mov    0x8(%ebp),%eax
c0102f80:	89 04 24             	mov    %eax,(%esp)
c0102f83:	e8 4b 3d 00 00       	call   c0106cd3 <page_to_addr>
c0102f88:	a3 a8 b0 10 c0       	mov    %eax,0xc010b0a8
c0102f8d:	8b 55 0c             	mov    0xc(%ebp),%edx
c0102f90:	89 d0                	mov    %edx,%eax
c0102f92:	c1 e0 02             	shl    $0x2,%eax
c0102f95:	01 d0                	add    %edx,%eax
c0102f97:	c1 e0 02             	shl    $0x2,%eax
c0102f9a:	8d 50 ec             	lea    -0x14(%eax),%edx
c0102f9d:	8b 45 08             	mov    0x8(%ebp),%eax
c0102fa0:	01 d0                	add    %edx,%eax
c0102fa2:	89 04 24             	mov    %eax,(%esp)
c0102fa5:	e8 29 3d 00 00       	call   c0106cd3 <page_to_addr>
c0102faa:	05 00 10 00 00       	add    $0x1000,%eax
c0102faf:	a3 ac b0 10 c0       	mov    %eax,0xc010b0ac
c0102fb4:	c7 45 f4 00 00 00 00 	movl   $0x0,-0xc(%ebp)
c0102fbb:	eb 38                	jmp    c0102ff5 <buddy_page_init+0xac>
c0102fbd:	8b 45 f4             	mov    -0xc(%ebp),%eax
c0102fc0:	c1 e0 03             	shl    $0x3,%eax
c0102fc3:	05 20 b0 10 c0       	add    $0xc010b020,%eax
c0102fc8:	89 04 24             	mov    %eax,(%esp)
c0102fcb:	e8 d1 fe ff ff       	call   c0102ea1 <INIT_LIST_HEAD>
c0102fd0:	8b 45 f4             	mov    -0xc(%ebp),%eax
c0102fd3:	83 c0 14             	add    $0x14,%eax
c0102fd6:	c1 e0 02             	shl    $0x2,%eax
c0102fd9:	05 20 b0 10 c0       	add    $0xc010b020,%eax
c0102fde:	83 c0 08             	add    $0x8,%eax
c0102fe1:	c7 44 24 04 00 00 00 	movl   $0x0,0x4(%esp)
c0102fe8:	00 
c0102fe9:	89 04 24             	mov    %eax,(%esp)
c0102fec:	e8 4b fe ff ff       	call   c0102e3c <atomic_set>
c0102ff1:	83 45 f4 01          	addl   $0x1,-0xc(%ebp)
c0102ff5:	83 7d f4 0a          	cmpl   $0xa,-0xc(%ebp)
c0102ff9:	7e c2                	jle    c0102fbd <buddy_page_init+0x74>
c0102ffb:	c7 45 f0 0a 00 00 00 	movl   $0xa,-0x10(%ebp)
c0103002:	8b 45 f0             	mov    -0x10(%ebp),%eax
c0103005:	ba 01 00 00 00       	mov    $0x1,%edx
c010300a:	89 c1                	mov    %eax,%ecx
c010300c:	d3 e2                	shl    %cl,%edx
c010300e:	89 d0                	mov    %edx,%eax
c0103010:	89 45 ec             	mov    %eax,-0x14(%ebp)
c0103013:	8b 45 08             	mov    0x8(%ebp),%eax
c0103016:	89 45 e8             	mov    %eax,-0x18(%ebp)
c0103019:	eb 7d                	jmp    c0103098 <buddy_page_init+0x14f>
c010301b:	eb 6c                	jmp    c0103089 <buddy_page_init+0x140>
c010301d:	8b 45 e8             	mov    -0x18(%ebp),%eax
c0103020:	83 c0 04             	add    $0x4,%eax
c0103023:	89 44 24 04          	mov    %eax,0x4(%esp)
c0103027:	c7 04 24 02 00 00 00 	movl   $0x2,(%esp)
c010302e:	e8 c3 fd ff ff       	call   c0102df6 <set_bit>
c0103033:	8b 45 e8             	mov    -0x18(%ebp),%eax
c0103036:	8b 55 f0             	mov    -0x10(%ebp),%edx
c0103039:	89 50 08             	mov    %edx,0x8(%eax)
c010303c:	8b 45 f0             	mov    -0x10(%ebp),%eax
c010303f:	c1 e0 03             	shl    $0x3,%eax
c0103042:	8d 90 20 b0 10 c0    	lea    -0x3fef4fe0(%eax),%edx
c0103048:	8b 45 e8             	mov    -0x18(%ebp),%eax
c010304b:	83 c0 0c             	add    $0xc,%eax
c010304e:	89 54 24 04          	mov    %edx,0x4(%esp)
c0103052:	89 04 24             	mov    %eax,(%esp)
c0103055:	e8 84 fe ff ff       	call   c0102ede <list_add>
c010305a:	8b 45 ec             	mov    -0x14(%ebp),%eax
c010305d:	29 45 0c             	sub    %eax,0xc(%ebp)
c0103060:	8b 55 ec             	mov    -0x14(%ebp),%edx
c0103063:	89 d0                	mov    %edx,%eax
c0103065:	c1 e0 02             	shl    $0x2,%eax
c0103068:	01 d0                	add    %edx,%eax
c010306a:	c1 e0 02             	shl    $0x2,%eax
c010306d:	01 45 e8             	add    %eax,-0x18(%ebp)
c0103070:	8b 45 f0             	mov    -0x10(%ebp),%eax
c0103073:	83 c0 14             	add    $0x14,%eax
c0103076:	c1 e0 02             	shl    $0x2,%eax
c0103079:	05 20 b0 10 c0       	add    $0xc010b020,%eax
c010307e:	83 c0 08             	add    $0x8,%eax
c0103081:	89 04 24             	mov    %eax,(%esp)
c0103084:	e8 e2 fd ff ff       	call   c0102e6b <atomic_inc>
c0103089:	8b 45 0c             	mov    0xc(%ebp),%eax
c010308c:	3b 45 ec             	cmp    -0x14(%ebp),%eax
c010308f:	73 8c                	jae    c010301d <buddy_page_init+0xd4>
c0103091:	83 6d f0 01          	subl   $0x1,-0x10(%ebp)
c0103095:	d1 6d ec             	shrl   -0x14(%ebp)
c0103098:	83 7d 0c 00          	cmpl   $0x0,0xc(%ebp)
c010309c:	0f 85 79 ff ff ff    	jne    c010301b <buddy_page_init+0xd2>
c01030a2:	e8 fd 04 00 00       	call   c01035a4 <buddy_show_memory_info>
c01030a7:	e8 57 05 00 00       	call   c0103603 <buddy_show_management_info>
c01030ac:	e8 8e 06 00 00       	call   c010373f <buddy_test_mm>
c01030b1:	c9                   	leave  
c01030b2:	c3                   	ret    

c01030b3 <get_order>:
c01030b3:	55                   	push   %ebp
c01030b4:	89 e5                	mov    %esp,%ebp
c01030b6:	83 ec 28             	sub    $0x28,%esp
c01030b9:	c7 45 f4 00 00 00 00 	movl   $0x0,-0xc(%ebp)
c01030c0:	c7 45 f0 01 00 00 00 	movl   $0x1,-0x10(%ebp)
c01030c7:	eb 14                	jmp    c01030dd <get_order+0x2a>
c01030c9:	8b 45 f0             	mov    -0x10(%ebp),%eax
c01030cc:	3b 45 08             	cmp    0x8(%ebp),%eax
c01030cf:	72 05                	jb     c01030d6 <get_order+0x23>
c01030d1:	8b 45 f4             	mov    -0xc(%ebp),%eax
c01030d4:	eb 1e                	jmp    c01030f4 <get_order+0x41>
c01030d6:	83 45 f4 01          	addl   $0x1,-0xc(%ebp)
c01030da:	d1 65 f0             	shll   -0x10(%ebp)
c01030dd:	83 7d f4 0a          	cmpl   $0xa,-0xc(%ebp)
c01030e1:	76 e6                	jbe    c01030c9 <get_order+0x16>
c01030e3:	c7 04 24 96 98 10 c0 	movl   $0xc0109896,(%esp)
c01030ea:	e8 d3 42 00 00       	call   c01073c2 <panic>
c01030ef:	b8 00 00 00 00       	mov    $0x0,%eax
c01030f4:	c9                   	leave  
c01030f5:	c3                   	ret    

c01030f6 <buddy_alloc_pages_sub>:
c01030f6:	55                   	push   %ebp
c01030f7:	89 e5                	mov    %esp,%ebp
c01030f9:	83 ec 38             	sub    $0x38,%esp
c01030fc:	83 7d 08 0a          	cmpl   $0xa,0x8(%ebp)
c0103100:	76 0c                	jbe    c010310e <buddy_alloc_pages_sub+0x18>
c0103102:	c7 04 24 a8 98 10 c0 	movl   $0xc01098a8,(%esp)
c0103109:	e8 b4 42 00 00       	call   c01073c2 <panic>
c010310e:	8b 45 08             	mov    0x8(%ebp),%eax
c0103111:	89 45 f4             	mov    %eax,-0xc(%ebp)
c0103114:	e9 03 01 00 00       	jmp    c010321c <buddy_alloc_pages_sub+0x126>
c0103119:	8b 45 f4             	mov    -0xc(%ebp),%eax
c010311c:	c1 e0 03             	shl    $0x3,%eax
c010311f:	05 20 b0 10 c0       	add    $0xc010b020,%eax
c0103124:	89 04 24             	mov    %eax,(%esp)
c0103127:	e8 0a fe ff ff       	call   c0102f36 <list_empty>
c010312c:	85 c0                	test   %eax,%eax
c010312e:	0f 85 e4 00 00 00    	jne    c0103218 <buddy_alloc_pages_sub+0x122>
c0103134:	8b 45 f4             	mov    -0xc(%ebp),%eax
c0103137:	8b 04 c5 20 b0 10 c0 	mov    -0x3fef4fe0(,%eax,8),%eax
c010313e:	89 45 ec             	mov    %eax,-0x14(%ebp)
c0103141:	8b 45 ec             	mov    -0x14(%ebp),%eax
c0103144:	83 e8 0c             	sub    $0xc,%eax
c0103147:	89 45 e8             	mov    %eax,-0x18(%ebp)
c010314a:	8b 45 f4             	mov    -0xc(%ebp),%eax
c010314d:	83 c0 14             	add    $0x14,%eax
c0103150:	c1 e0 02             	shl    $0x2,%eax
c0103153:	05 20 b0 10 c0       	add    $0xc010b020,%eax
c0103158:	83 c0 08             	add    $0x8,%eax
c010315b:	89 04 24             	mov    %eax,(%esp)
c010315e:	e8 16 fd ff ff       	call   c0102e79 <atomic_dec>
c0103163:	8b 45 ec             	mov    -0x14(%ebp),%eax
c0103166:	89 04 24             	mov    %eax,(%esp)
c0103169:	e8 a9 fd ff ff       	call   c0102f17 <list_del>
c010316e:	8b 45 f4             	mov    -0xc(%ebp),%eax
c0103171:	ba 01 00 00 00       	mov    $0x1,%edx
c0103176:	89 c1                	mov    %eax,%ecx
c0103178:	d3 e2                	shl    %cl,%edx
c010317a:	89 d0                	mov    %edx,%eax
c010317c:	89 45 f0             	mov    %eax,-0x10(%ebp)
c010317f:	eb 74                	jmp    c01031f5 <buddy_alloc_pages_sub+0xff>
c0103181:	83 6d f4 01          	subl   $0x1,-0xc(%ebp)
c0103185:	d1 6d f0             	shrl   -0x10(%ebp)
c0103188:	8b 55 f0             	mov    -0x10(%ebp),%edx
c010318b:	89 d0                	mov    %edx,%eax
c010318d:	c1 e0 02             	shl    $0x2,%eax
c0103190:	01 d0                	add    %edx,%eax
c0103192:	c1 e0 02             	shl    $0x2,%eax
c0103195:	89 c2                	mov    %eax,%edx
c0103197:	8b 45 e8             	mov    -0x18(%ebp),%eax
c010319a:	01 d0                	add    %edx,%eax
c010319c:	89 45 e4             	mov    %eax,-0x1c(%ebp)
c010319f:	8b 45 e4             	mov    -0x1c(%ebp),%eax
c01031a2:	8b 55 f4             	mov    -0xc(%ebp),%edx
c01031a5:	89 50 08             	mov    %edx,0x8(%eax)
c01031a8:	8b 45 e4             	mov    -0x1c(%ebp),%eax
c01031ab:	83 c0 04             	add    $0x4,%eax
c01031ae:	89 44 24 04          	mov    %eax,0x4(%esp)
c01031b2:	c7 04 24 02 00 00 00 	movl   $0x2,(%esp)
c01031b9:	e8 38 fc ff ff       	call   c0102df6 <set_bit>
c01031be:	8b 45 f4             	mov    -0xc(%ebp),%eax
c01031c1:	83 c0 14             	add    $0x14,%eax
c01031c4:	c1 e0 02             	shl    $0x2,%eax
c01031c7:	05 20 b0 10 c0       	add    $0xc010b020,%eax
c01031cc:	83 c0 08             	add    $0x8,%eax
c01031cf:	89 04 24             	mov    %eax,(%esp)
c01031d2:	e8 94 fc ff ff       	call   c0102e6b <atomic_inc>
c01031d7:	8b 45 f4             	mov    -0xc(%ebp),%eax
c01031da:	c1 e0 03             	shl    $0x3,%eax
c01031dd:	8d 90 20 b0 10 c0    	lea    -0x3fef4fe0(%eax),%edx
c01031e3:	8b 45 e4             	mov    -0x1c(%ebp),%eax
c01031e6:	83 c0 0c             	add    $0xc,%eax
c01031e9:	89 54 24 04          	mov    %edx,0x4(%esp)
c01031ed:	89 04 24             	mov    %eax,(%esp)
c01031f0:	e8 e9 fc ff ff       	call   c0102ede <list_add>
c01031f5:	8b 45 f4             	mov    -0xc(%ebp),%eax
c01031f8:	3b 45 08             	cmp    0x8(%ebp),%eax
c01031fb:	77 84                	ja     c0103181 <buddy_alloc_pages_sub+0x8b>
c01031fd:	8b 45 e8             	mov    -0x18(%ebp),%eax
c0103200:	83 c0 04             	add    $0x4,%eax
c0103203:	89 44 24 04          	mov    %eax,0x4(%esp)
c0103207:	c7 04 24 02 00 00 00 	movl   $0x2,(%esp)
c010320e:	e8 f1 fb ff ff       	call   c0102e04 <clear_bit>
c0103213:	8b 45 e8             	mov    -0x18(%ebp),%eax
c0103216:	eb 13                	jmp    c010322b <buddy_alloc_pages_sub+0x135>
c0103218:	83 45 f4 01          	addl   $0x1,-0xc(%ebp)
c010321c:	83 7d f4 0a          	cmpl   $0xa,-0xc(%ebp)
c0103220:	0f 86 f3 fe ff ff    	jbe    c0103119 <buddy_alloc_pages_sub+0x23>
c0103226:	b8 00 00 00 00       	mov    $0x0,%eax
c010322b:	c9                   	leave  
c010322c:	c3                   	ret    

c010322d <buddy_alloc_pages>:
c010322d:	55                   	push   %ebp
c010322e:	89 e5                	mov    %esp,%ebp
c0103230:	53                   	push   %ebx
c0103231:	83 ec 24             	sub    $0x24,%esp
c0103234:	83 7d 08 00          	cmpl   $0x0,0x8(%ebp)
c0103238:	74 11                	je     c010324b <buddy_alloc_pages+0x1e>
c010323a:	c7 04 24 b4 b0 10 c0 	movl   $0xc010b0b4,(%esp)
c0103241:	e8 ec fb ff ff       	call   c0102e32 <atomic_read>
c0103246:	3b 45 08             	cmp    0x8(%ebp),%eax
c0103249:	73 0a                	jae    c0103255 <buddy_alloc_pages+0x28>
c010324b:	b8 00 00 00 00       	mov    $0x0,%eax
c0103250:	e9 92 00 00 00       	jmp    c01032e7 <buddy_alloc_pages+0xba>
c0103255:	8b 45 08             	mov    0x8(%ebp),%eax
c0103258:	89 04 24             	mov    %eax,(%esp)
c010325b:	e8 53 fe ff ff       	call   c01030b3 <get_order>
c0103260:	89 45 f4             	mov    %eax,-0xc(%ebp)
c0103263:	8b 45 f4             	mov    -0xc(%ebp),%eax
c0103266:	ba 01 00 00 00       	mov    $0x1,%edx
c010326b:	89 c1                	mov    %eax,%ecx
c010326d:	d3 e2                	shl    %cl,%edx
c010326f:	89 d0                	mov    %edx,%eax
c0103271:	89 45 f0             	mov    %eax,-0x10(%ebp)
c0103274:	8b 45 f4             	mov    -0xc(%ebp),%eax
c0103277:	89 04 24             	mov    %eax,(%esp)
c010327a:	e8 77 fe ff ff       	call   c01030f6 <buddy_alloc_pages_sub>
c010327f:	89 45 ec             	mov    %eax,-0x14(%ebp)
c0103282:	83 7d ec 00          	cmpl   $0x0,-0x14(%ebp)
c0103286:	75 07                	jne    c010328f <buddy_alloc_pages+0x62>
c0103288:	b8 00 00 00 00       	mov    $0x0,%eax
c010328d:	eb 58                	jmp    c01032e7 <buddy_alloc_pages+0xba>
c010328f:	8b 45 08             	mov    0x8(%ebp),%eax
c0103292:	3b 45 f0             	cmp    -0x10(%ebp),%eax
c0103295:	74 32                	je     c01032c9 <buddy_alloc_pages+0x9c>
c0103297:	8b 45 08             	mov    0x8(%ebp),%eax
c010329a:	8b 55 f0             	mov    -0x10(%ebp),%edx
c010329d:	89 d3                	mov    %edx,%ebx
c010329f:	29 c3                	sub    %eax,%ebx
c01032a1:	8b 55 08             	mov    0x8(%ebp),%edx
c01032a4:	89 d0                	mov    %edx,%eax
c01032a6:	c1 e0 02             	shl    $0x2,%eax
c01032a9:	01 d0                	add    %edx,%eax
c01032ab:	c1 e0 02             	shl    $0x2,%eax
c01032ae:	89 c2                	mov    %eax,%edx
c01032b0:	8b 45 ec             	mov    -0x14(%ebp),%eax
c01032b3:	01 d0                	add    %edx,%eax
c01032b5:	89 04 24             	mov    %eax,(%esp)
c01032b8:	e8 16 3a 00 00       	call   c0106cd3 <page_to_addr>
c01032bd:	89 5c 24 04          	mov    %ebx,0x4(%esp)
c01032c1:	89 04 24             	mov    %eax,(%esp)
c01032c4:	e8 f9 01 00 00       	call   c01034c2 <buddy_free_pages>
c01032c9:	8b 45 08             	mov    0x8(%ebp),%eax
c01032cc:	89 44 24 04          	mov    %eax,0x4(%esp)
c01032d0:	c7 04 24 b4 b0 10 c0 	movl   $0xc010b0b4,(%esp)
c01032d7:	e8 7e fb ff ff       	call   c0102e5a <atomic_sub>
c01032dc:	8b 45 ec             	mov    -0x14(%ebp),%eax
c01032df:	89 04 24             	mov    %eax,(%esp)
c01032e2:	e8 ec 39 00 00       	call   c0106cd3 <page_to_addr>
c01032e7:	83 c4 24             	add    $0x24,%esp
c01032ea:	5b                   	pop    %ebx
c01032eb:	5d                   	pop    %ebp
c01032ec:	c3                   	ret    

c01032ed <page_to_idx>:
c01032ed:	55                   	push   %ebp
c01032ee:	89 e5                	mov    %esp,%ebp
c01032f0:	8b 55 08             	mov    0x8(%ebp),%edx
c01032f3:	a1 a4 b0 10 c0       	mov    0xc010b0a4,%eax
c01032f8:	29 c2                	sub    %eax,%edx
c01032fa:	89 d0                	mov    %edx,%eax
c01032fc:	c1 f8 02             	sar    $0x2,%eax
c01032ff:	69 c0 cd cc cc cc    	imul   $0xcccccccd,%eax,%eax
c0103305:	5d                   	pop    %ebp
c0103306:	c3                   	ret    

c0103307 <idx_to_page>:
c0103307:	55                   	push   %ebp
c0103308:	89 e5                	mov    %esp,%ebp
c010330a:	8b 0d a4 b0 10 c0    	mov    0xc010b0a4,%ecx
c0103310:	8b 55 08             	mov    0x8(%ebp),%edx
c0103313:	89 d0                	mov    %edx,%eax
c0103315:	c1 e0 02             	shl    $0x2,%eax
c0103318:	01 d0                	add    %edx,%eax
c010331a:	c1 e0 02             	shl    $0x2,%eax
c010331d:	01 c8                	add    %ecx,%eax
c010331f:	5d                   	pop    %ebp
c0103320:	c3                   	ret    

c0103321 <page_is_buddy>:
c0103321:	55                   	push   %ebp
c0103322:	89 e5                	mov    %esp,%ebp
c0103324:	53                   	push   %ebx
c0103325:	83 ec 08             	sub    $0x8,%esp
c0103328:	8b 45 08             	mov    0x8(%ebp),%eax
c010332b:	89 04 24             	mov    %eax,(%esp)
c010332e:	e8 ba ff ff ff       	call   c01032ed <page_to_idx>
c0103333:	89 c3                	mov    %eax,%ebx
c0103335:	c7 04 24 b0 b0 10 c0 	movl   $0xc010b0b0,(%esp)
c010333c:	e8 f1 fa ff ff       	call   c0102e32 <atomic_read>
c0103341:	39 c3                	cmp    %eax,%ebx
c0103343:	73 33                	jae    c0103378 <page_is_buddy+0x57>
c0103345:	8b 45 08             	mov    0x8(%ebp),%eax
c0103348:	83 c0 04             	add    $0x4,%eax
c010334b:	89 44 24 04          	mov    %eax,0x4(%esp)
c010334f:	c7 04 24 02 00 00 00 	movl   $0x2,(%esp)
c0103356:	e8 b7 fa ff ff       	call   c0102e12 <test_bit>
c010335b:	85 c0                	test   %eax,%eax
c010335d:	74 12                	je     c0103371 <page_is_buddy+0x50>
c010335f:	8b 45 08             	mov    0x8(%ebp),%eax
c0103362:	8b 40 08             	mov    0x8(%eax),%eax
c0103365:	3b 45 0c             	cmp    0xc(%ebp),%eax
c0103368:	75 07                	jne    c0103371 <page_is_buddy+0x50>
c010336a:	b8 01 00 00 00       	mov    $0x1,%eax
c010336f:	eb 05                	jmp    c0103376 <page_is_buddy+0x55>
c0103371:	b8 00 00 00 00       	mov    $0x0,%eax
c0103376:	eb 05                	jmp    c010337d <page_is_buddy+0x5c>
c0103378:	b8 00 00 00 00       	mov    $0x0,%eax
c010337d:	83 c4 08             	add    $0x8,%esp
c0103380:	5b                   	pop    %ebx
c0103381:	5d                   	pop    %ebp
c0103382:	c3                   	ret    

c0103383 <buddy_free_pages_sub>:
c0103383:	55                   	push   %ebp
c0103384:	89 e5                	mov    %esp,%ebp
c0103386:	83 ec 28             	sub    $0x28,%esp
c0103389:	8b 45 08             	mov    0x8(%ebp),%eax
c010338c:	89 04 24             	mov    %eax,(%esp)
c010338f:	e8 59 ff ff ff       	call   c01032ed <page_to_idx>
c0103394:	89 45 fc             	mov    %eax,-0x4(%ebp)
c0103397:	8b 45 08             	mov    0x8(%ebp),%eax
c010339a:	89 45 f8             	mov    %eax,-0x8(%ebp)
c010339d:	eb 17                	jmp    c01033b6 <buddy_free_pages_sub+0x33>
c010339f:	c7 44 24 04 00 00 00 	movl   $0x0,0x4(%esp)
c01033a6:	00 
c01033a7:	8b 45 f8             	mov    -0x8(%ebp),%eax
c01033aa:	89 04 24             	mov    %eax,(%esp)
c01033ad:	e8 d5 fa ff ff       	call   c0102e87 <set_page_ref>
c01033b2:	83 45 f8 14          	addl   $0x14,-0x8(%ebp)
c01033b6:	8b 45 0c             	mov    0xc(%ebp),%eax
c01033b9:	ba 14 00 00 00       	mov    $0x14,%edx
c01033be:	89 c1                	mov    %eax,%ecx
c01033c0:	d3 e2                	shl    %cl,%edx
c01033c2:	8b 45 08             	mov    0x8(%ebp),%eax
c01033c5:	01 d0                	add    %edx,%eax
c01033c7:	3b 45 f8             	cmp    -0x8(%ebp),%eax
c01033ca:	75 d3                	jne    c010339f <buddy_free_pages_sub+0x1c>
c01033cc:	e9 81 00 00 00       	jmp    c0103452 <buddy_free_pages_sub+0xcf>
c01033d1:	8b 45 0c             	mov    0xc(%ebp),%eax
c01033d4:	ba 01 00 00 00       	mov    $0x1,%edx
c01033d9:	89 c1                	mov    %eax,%ecx
c01033db:	d3 e2                	shl    %cl,%edx
c01033dd:	89 d0                	mov    %edx,%eax
c01033df:	33 45 fc             	xor    -0x4(%ebp),%eax
c01033e2:	89 45 f4             	mov    %eax,-0xc(%ebp)
c01033e5:	8b 45 f4             	mov    -0xc(%ebp),%eax
c01033e8:	89 04 24             	mov    %eax,(%esp)
c01033eb:	e8 17 ff ff ff       	call   c0103307 <idx_to_page>
c01033f0:	89 45 f0             	mov    %eax,-0x10(%ebp)
c01033f3:	8b 45 0c             	mov    0xc(%ebp),%eax
c01033f6:	89 44 24 04          	mov    %eax,0x4(%esp)
c01033fa:	8b 45 f0             	mov    -0x10(%ebp),%eax
c01033fd:	89 04 24             	mov    %eax,(%esp)
c0103400:	e8 1c ff ff ff       	call   c0103321 <page_is_buddy>
c0103405:	85 c0                	test   %eax,%eax
c0103407:	75 02                	jne    c010340b <buddy_free_pages_sub+0x88>
c0103409:	eb 51                	jmp    c010345c <buddy_free_pages_sub+0xd9>
c010340b:	8b 45 0c             	mov    0xc(%ebp),%eax
c010340e:	83 c0 14             	add    $0x14,%eax
c0103411:	c1 e0 02             	shl    $0x2,%eax
c0103414:	05 20 b0 10 c0       	add    $0xc010b020,%eax
c0103419:	83 c0 08             	add    $0x8,%eax
c010341c:	89 04 24             	mov    %eax,(%esp)
c010341f:	e8 55 fa ff ff       	call   c0102e79 <atomic_dec>
c0103424:	8b 45 f0             	mov    -0x10(%ebp),%eax
c0103427:	83 c0 0c             	add    $0xc,%eax
c010342a:	89 04 24             	mov    %eax,(%esp)
c010342d:	e8 e5 fa ff ff       	call   c0102f17 <list_del>
c0103432:	8b 45 f0             	mov    -0x10(%ebp),%eax
c0103435:	83 c0 04             	add    $0x4,%eax
c0103438:	89 44 24 04          	mov    %eax,0x4(%esp)
c010343c:	c7 04 24 02 00 00 00 	movl   $0x2,(%esp)
c0103443:	e8 bc f9 ff ff       	call   c0102e04 <clear_bit>
c0103448:	8b 45 f4             	mov    -0xc(%ebp),%eax
c010344b:	21 45 fc             	and    %eax,-0x4(%ebp)
c010344e:	83 45 0c 01          	addl   $0x1,0xc(%ebp)
c0103452:	83 7d 0c 09          	cmpl   $0x9,0xc(%ebp)
c0103456:	0f 86 75 ff ff ff    	jbe    c01033d1 <buddy_free_pages_sub+0x4e>
c010345c:	8b 45 fc             	mov    -0x4(%ebp),%eax
c010345f:	89 04 24             	mov    %eax,(%esp)
c0103462:	e8 a0 fe ff ff       	call   c0103307 <idx_to_page>
c0103467:	89 45 ec             	mov    %eax,-0x14(%ebp)
c010346a:	8b 45 ec             	mov    -0x14(%ebp),%eax
c010346d:	8b 55 0c             	mov    0xc(%ebp),%edx
c0103470:	89 50 08             	mov    %edx,0x8(%eax)
c0103473:	8b 45 ec             	mov    -0x14(%ebp),%eax
c0103476:	83 c0 04             	add    $0x4,%eax
c0103479:	89 44 24 04          	mov    %eax,0x4(%esp)
c010347d:	c7 04 24 02 00 00 00 	movl   $0x2,(%esp)
c0103484:	e8 6d f9 ff ff       	call   c0102df6 <set_bit>
c0103489:	8b 45 0c             	mov    0xc(%ebp),%eax
c010348c:	83 c0 14             	add    $0x14,%eax
c010348f:	c1 e0 02             	shl    $0x2,%eax
c0103492:	05 20 b0 10 c0       	add    $0xc010b020,%eax
c0103497:	83 c0 08             	add    $0x8,%eax
c010349a:	89 04 24             	mov    %eax,(%esp)
c010349d:	e8 c9 f9 ff ff       	call   c0102e6b <atomic_inc>
c01034a2:	8b 45 0c             	mov    0xc(%ebp),%eax
c01034a5:	c1 e0 03             	shl    $0x3,%eax
c01034a8:	8d 90 20 b0 10 c0    	lea    -0x3fef4fe0(%eax),%edx
c01034ae:	8b 45 ec             	mov    -0x14(%ebp),%eax
c01034b1:	83 c0 0c             	add    $0xc,%eax
c01034b4:	89 54 24 04          	mov    %edx,0x4(%esp)
c01034b8:	89 04 24             	mov    %eax,(%esp)
c01034bb:	e8 1e fa ff ff       	call   c0102ede <list_add>
c01034c0:	c9                   	leave  
c01034c1:	c3                   	ret    

c01034c2 <buddy_free_pages>:
c01034c2:	55                   	push   %ebp
c01034c3:	89 e5                	mov    %esp,%ebp
c01034c5:	83 ec 28             	sub    $0x28,%esp
c01034c8:	83 7d 0c 00          	cmpl   $0x0,0xc(%ebp)
c01034cc:	75 05                	jne    c01034d3 <buddy_free_pages+0x11>
c01034ce:	e9 bb 00 00 00       	jmp    c010358e <buddy_free_pages+0xcc>
c01034d3:	8b 45 08             	mov    0x8(%ebp),%eax
c01034d6:	89 04 24             	mov    %eax,(%esp)
c01034d9:	e8 ae 37 00 00       	call   c0106c8c <addr_to_page>
c01034de:	89 45 f4             	mov    %eax,-0xc(%ebp)
c01034e1:	c7 45 f0 00 00 00 00 	movl   $0x0,-0x10(%ebp)
c01034e8:	c7 45 ec 01 00 00 00 	movl   $0x1,-0x14(%ebp)
c01034ef:	eb 41                	jmp    c0103532 <buddy_free_pages+0x70>
c01034f1:	8b 45 f4             	mov    -0xc(%ebp),%eax
c01034f4:	89 04 24             	mov    %eax,(%esp)
c01034f7:	e8 f1 fd ff ff       	call   c01032ed <page_to_idx>
c01034fc:	23 45 ec             	and    -0x14(%ebp),%eax
c01034ff:	85 c0                	test   %eax,%eax
c0103501:	74 28                	je     c010352b <buddy_free_pages+0x69>
c0103503:	8b 45 f0             	mov    -0x10(%ebp),%eax
c0103506:	89 44 24 04          	mov    %eax,0x4(%esp)
c010350a:	8b 45 f4             	mov    -0xc(%ebp),%eax
c010350d:	89 04 24             	mov    %eax,(%esp)
c0103510:	e8 6e fe ff ff       	call   c0103383 <buddy_free_pages_sub>
c0103515:	8b 55 ec             	mov    -0x14(%ebp),%edx
c0103518:	89 d0                	mov    %edx,%eax
c010351a:	c1 e0 02             	shl    $0x2,%eax
c010351d:	01 d0                	add    %edx,%eax
c010351f:	c1 e0 02             	shl    $0x2,%eax
c0103522:	01 45 f4             	add    %eax,-0xc(%ebp)
c0103525:	8b 45 ec             	mov    -0x14(%ebp),%eax
c0103528:	29 45 0c             	sub    %eax,0xc(%ebp)
c010352b:	83 45 f0 01          	addl   $0x1,-0x10(%ebp)
c010352f:	d1 65 ec             	shll   -0x14(%ebp)
c0103532:	8b 45 0c             	mov    0xc(%ebp),%eax
c0103535:	3b 45 ec             	cmp    -0x14(%ebp),%eax
c0103538:	73 b7                	jae    c01034f1 <buddy_free_pages+0x2f>
c010353a:	eb 39                	jmp    c0103575 <buddy_free_pages+0xb3>
c010353c:	eb 07                	jmp    c0103545 <buddy_free_pages+0x83>
c010353e:	83 6d f0 01          	subl   $0x1,-0x10(%ebp)
c0103542:	d1 6d ec             	shrl   -0x14(%ebp)
c0103545:	8b 45 0c             	mov    0xc(%ebp),%eax
c0103548:	3b 45 ec             	cmp    -0x14(%ebp),%eax
c010354b:	72 f1                	jb     c010353e <buddy_free_pages+0x7c>
c010354d:	8b 45 f0             	mov    -0x10(%ebp),%eax
c0103550:	89 44 24 04          	mov    %eax,0x4(%esp)
c0103554:	8b 45 f4             	mov    -0xc(%ebp),%eax
c0103557:	89 04 24             	mov    %eax,(%esp)
c010355a:	e8 24 fe ff ff       	call   c0103383 <buddy_free_pages_sub>
c010355f:	8b 55 ec             	mov    -0x14(%ebp),%edx
c0103562:	89 d0                	mov    %edx,%eax
c0103564:	c1 e0 02             	shl    $0x2,%eax
c0103567:	01 d0                	add    %edx,%eax
c0103569:	c1 e0 02             	shl    $0x2,%eax
c010356c:	01 45 f4             	add    %eax,-0xc(%ebp)
c010356f:	8b 45 ec             	mov    -0x14(%ebp),%eax
c0103572:	29 45 0c             	sub    %eax,0xc(%ebp)
c0103575:	83 7d 0c 00          	cmpl   $0x0,0xc(%ebp)
c0103579:	75 c1                	jne    c010353c <buddy_free_pages+0x7a>
c010357b:	8b 45 0c             	mov    0xc(%ebp),%eax
c010357e:	89 44 24 04          	mov    %eax,0x4(%esp)
c0103582:	c7 04 24 b4 b0 10 c0 	movl   $0xc010b0b4,(%esp)
c0103589:	e8 bb f8 ff ff       	call   c0102e49 <atomic_add>
c010358e:	c9                   	leave  
c010358f:	c3                   	ret    

c0103590 <buddy_free_pages_count>:
c0103590:	55                   	push   %ebp
c0103591:	89 e5                	mov    %esp,%ebp
c0103593:	83 ec 04             	sub    $0x4,%esp
c0103596:	c7 04 24 b4 b0 10 c0 	movl   $0xc010b0b4,(%esp)
c010359d:	e8 90 f8 ff ff       	call   c0102e32 <atomic_read>
c01035a2:	c9                   	leave  
c01035a3:	c3                   	ret    

c01035a4 <buddy_show_memory_info>:
c01035a4:	55                   	push   %ebp
c01035a5:	89 e5                	mov    %esp,%ebp
c01035a7:	53                   	push   %ebx
c01035a8:	83 ec 14             	sub    $0x14,%esp
c01035ab:	8b 15 ac b0 10 c0    	mov    0xc010b0ac,%edx
c01035b1:	a1 a8 b0 10 c0       	mov    0xc010b0a8,%eax
c01035b6:	89 54 24 08          	mov    %edx,0x8(%esp)
c01035ba:	89 44 24 04          	mov    %eax,0x4(%esp)
c01035be:	c7 04 24 dc 98 10 c0 	movl   $0xc01098dc,(%esp)
c01035c5:	e8 dd 25 00 00       	call   c0105ba7 <printk>
c01035ca:	c7 04 24 b0 b0 10 c0 	movl   $0xc010b0b0,(%esp)
c01035d1:	e8 5c f8 ff ff       	call   c0102e32 <atomic_read>
c01035d6:	8d 1c 85 00 00 00 00 	lea    0x0(,%eax,4),%ebx
c01035dd:	c7 04 24 b0 b0 10 c0 	movl   $0xc010b0b0,(%esp)
c01035e4:	e8 49 f8 ff ff       	call   c0102e32 <atomic_read>
c01035e9:	89 5c 24 08          	mov    %ebx,0x8(%esp)
c01035ed:	89 44 24 04          	mov    %eax,0x4(%esp)
c01035f1:	c7 04 24 0c 99 10 c0 	movl   $0xc010990c,(%esp)
c01035f8:	e8 aa 25 00 00       	call   c0105ba7 <printk>
c01035fd:	83 c4 14             	add    $0x14,%esp
c0103600:	5b                   	pop    %ebx
c0103601:	5d                   	pop    %ebp
c0103602:	c3                   	ret    

c0103603 <buddy_show_management_info>:
c0103603:	55                   	push   %ebp
c0103604:	89 e5                	mov    %esp,%ebp
c0103606:	56                   	push   %esi
c0103607:	53                   	push   %ebx
c0103608:	83 ec 30             	sub    $0x30,%esp
c010360b:	c7 44 24 08 3c 99 10 	movl   $0xc010993c,0x8(%esp)
c0103612:	c0 
c0103613:	c7 44 24 04 02 00 00 	movl   $0x2,0x4(%esp)
c010361a:	00 
c010361b:	c7 04 24 00 00 00 00 	movl   $0x0,(%esp)
c0103622:	e8 c2 25 00 00       	call   c0105be9 <cprintk>
c0103627:	c7 45 f4 00 00 00 00 	movl   $0x0,-0xc(%ebp)
c010362e:	c7 45 f0 00 00 00 00 	movl   $0x0,-0x10(%ebp)
c0103635:	eb 7d                	jmp    c01036b4 <buddy_show_management_info+0xb1>
c0103637:	8b 45 f0             	mov    -0x10(%ebp),%eax
c010363a:	83 c0 14             	add    $0x14,%eax
c010363d:	c1 e0 02             	shl    $0x2,%eax
c0103640:	05 20 b0 10 c0       	add    $0xc010b020,%eax
c0103645:	83 c0 08             	add    $0x8,%eax
c0103648:	89 04 24             	mov    %eax,(%esp)
c010364b:	e8 e2 f7 ff ff       	call   c0102e32 <atomic_read>
c0103650:	89 c2                	mov    %eax,%edx
c0103652:	8b 45 f0             	mov    -0x10(%ebp),%eax
c0103655:	89 c1                	mov    %eax,%ecx
c0103657:	d3 e2                	shl    %cl,%edx
c0103659:	89 d0                	mov    %edx,%eax
c010365b:	01 45 f4             	add    %eax,-0xc(%ebp)
c010365e:	8b 45 f0             	mov    -0x10(%ebp),%eax
c0103661:	83 c0 14             	add    $0x14,%eax
c0103664:	c1 e0 02             	shl    $0x2,%eax
c0103667:	05 20 b0 10 c0       	add    $0xc010b020,%eax
c010366c:	83 c0 08             	add    $0x8,%eax
c010366f:	89 04 24             	mov    %eax,(%esp)
c0103672:	e8 bb f7 ff ff       	call   c0102e32 <atomic_read>
c0103677:	8b 55 f0             	mov    -0x10(%ebp),%edx
c010367a:	bb 01 00 00 00       	mov    $0x1,%ebx
c010367f:	89 d1                	mov    %edx,%ecx
c0103681:	d3 e3                	shl    %cl,%ebx
c0103683:	89 da                	mov    %ebx,%edx
c0103685:	89 44 24 14          	mov    %eax,0x14(%esp)
c0103689:	89 54 24 10          	mov    %edx,0x10(%esp)
c010368d:	8b 45 f0             	mov    -0x10(%ebp),%eax
c0103690:	89 44 24 0c          	mov    %eax,0xc(%esp)
c0103694:	c7 44 24 08 54 99 10 	movl   $0xc0109954,0x8(%esp)
c010369b:	c0 
c010369c:	c7 44 24 04 02 00 00 	movl   $0x2,0x4(%esp)
c01036a3:	00 
c01036a4:	c7 04 24 00 00 00 00 	movl   $0x0,(%esp)
c01036ab:	e8 39 25 00 00       	call   c0105be9 <cprintk>
c01036b0:	83 45 f0 01          	addl   $0x1,-0x10(%ebp)
c01036b4:	83 7d f0 0a          	cmpl   $0xa,-0x10(%ebp)
c01036b8:	0f 86 79 ff ff ff    	jbe    c0103637 <buddy_show_management_info+0x34>
c01036be:	8b 45 f4             	mov    -0xc(%ebp),%eax
c01036c1:	89 44 24 0c          	mov    %eax,0xc(%esp)
c01036c5:	c7 44 24 08 80 99 10 	movl   $0xc0109980,0x8(%esp)
c01036cc:	c0 
c01036cd:	c7 44 24 04 02 00 00 	movl   $0x2,0x4(%esp)
c01036d4:	00 
c01036d5:	c7 04 24 00 00 00 00 	movl   $0x0,(%esp)
c01036dc:	e8 08 25 00 00       	call   c0105be9 <cprintk>
c01036e1:	c7 04 24 b0 b0 10 c0 	movl   $0xc010b0b0,(%esp)
c01036e8:	e8 45 f7 ff ff       	call   c0102e32 <atomic_read>
c01036ed:	89 c3                	mov    %eax,%ebx
c01036ef:	c7 04 24 b4 b0 10 c0 	movl   $0xc010b0b4,(%esp)
c01036f6:	e8 37 f7 ff ff       	call   c0102e32 <atomic_read>
c01036fb:	29 c3                	sub    %eax,%ebx
c01036fd:	89 d8                	mov    %ebx,%eax
c01036ff:	8d 34 85 00 00 00 00 	lea    0x0(,%eax,4),%esi
c0103706:	c7 04 24 b0 b0 10 c0 	movl   $0xc010b0b0,(%esp)
c010370d:	e8 20 f7 ff ff       	call   c0102e32 <atomic_read>
c0103712:	89 c3                	mov    %eax,%ebx
c0103714:	c7 04 24 b4 b0 10 c0 	movl   $0xc010b0b4,(%esp)
c010371b:	e8 12 f7 ff ff       	call   c0102e32 <atomic_read>
c0103720:	29 c3                	sub    %eax,%ebx
c0103722:	89 d8                	mov    %ebx,%eax
c0103724:	89 74 24 08          	mov    %esi,0x8(%esp)
c0103728:	89 44 24 04          	mov    %eax,0x4(%esp)
c010372c:	c7 04 24 a8 99 10 c0 	movl   $0xc01099a8,(%esp)
c0103733:	e8 6f 24 00 00       	call   c0105ba7 <printk>
c0103738:	83 c4 30             	add    $0x30,%esp
c010373b:	5b                   	pop    %ebx
c010373c:	5e                   	pop    %esi
c010373d:	5d                   	pop    %ebp
c010373e:	c3                   	ret    

c010373f <buddy_test_mm>:
c010373f:	55                   	push   %ebp
c0103740:	89 e5                	mov    %esp,%ebp
c0103742:	83 ec 48             	sub    $0x48,%esp
c0103745:	a1 1c 90 10 c0       	mov    0xc010901c,%eax
c010374a:	89 44 24 0c          	mov    %eax,0xc(%esp)
c010374e:	c7 44 24 08 d7 99 10 	movl   $0xc01099d7,0x8(%esp)
c0103755:	c0 
c0103756:	c7 44 24 04 02 00 00 	movl   $0x2,0x4(%esp)
c010375d:	00 
c010375e:	c7 04 24 00 00 00 00 	movl   $0x0,(%esp)
c0103765:	e8 7f 24 00 00       	call   c0105be9 <cprintk>
c010376a:	c7 44 24 08 e8 99 10 	movl   $0xc01099e8,0x8(%esp)
c0103771:	c0 
c0103772:	c7 44 24 04 04 00 00 	movl   $0x4,0x4(%esp)
c0103779:	00 
c010377a:	c7 04 24 00 00 00 00 	movl   $0x0,(%esp)
c0103781:	e8 63 24 00 00       	call   c0105be9 <cprintk>
c0103786:	c7 45 f4 00 00 00 00 	movl   $0x0,-0xc(%ebp)
c010378d:	eb 3d                	jmp    c01037cc <buddy_test_mm+0x8d>
c010378f:	8b 45 f4             	mov    -0xc(%ebp),%eax
c0103792:	83 c0 14             	add    $0x14,%eax
c0103795:	c1 e0 02             	shl    $0x2,%eax
c0103798:	05 20 b0 10 c0       	add    $0xc010b020,%eax
c010379d:	83 c0 08             	add    $0x8,%eax
c01037a0:	89 04 24             	mov    %eax,(%esp)
c01037a3:	e8 8a f6 ff ff       	call   c0102e32 <atomic_read>
c01037a8:	89 44 24 0c          	mov    %eax,0xc(%esp)
c01037ac:	c7 44 24 08 0b 9a 10 	movl   $0xc0109a0b,0x8(%esp)
c01037b3:	c0 
c01037b4:	c7 44 24 04 04 00 00 	movl   $0x4,0x4(%esp)
c01037bb:	00 
c01037bc:	c7 04 24 00 00 00 00 	movl   $0x0,(%esp)
c01037c3:	e8 21 24 00 00       	call   c0105be9 <cprintk>
c01037c8:	83 45 f4 01          	addl   $0x1,-0xc(%ebp)
c01037cc:	83 7d f4 0a          	cmpl   $0xa,-0xc(%ebp)
c01037d0:	76 bd                	jbe    c010378f <buddy_test_mm+0x50>
c01037d2:	c7 04 24 10 9a 10 c0 	movl   $0xc0109a10,(%esp)
c01037d9:	e8 c9 23 00 00       	call   c0105ba7 <printk>
c01037de:	c7 04 24 01 00 00 00 	movl   $0x1,(%esp)
c01037e5:	e8 43 fa ff ff       	call   c010322d <buddy_alloc_pages>
c01037ea:	89 45 cc             	mov    %eax,-0x34(%ebp)
c01037ed:	c7 04 24 02 00 00 00 	movl   $0x2,(%esp)
c01037f4:	e8 34 fa ff ff       	call   c010322d <buddy_alloc_pages>
c01037f9:	89 45 d0             	mov    %eax,-0x30(%ebp)
c01037fc:	8b 45 cc             	mov    -0x34(%ebp),%eax
c01037ff:	c7 44 24 04 01 00 00 	movl   $0x1,0x4(%esp)
c0103806:	00 
c0103807:	89 04 24             	mov    %eax,(%esp)
c010380a:	e8 b3 fc ff ff       	call   c01034c2 <buddy_free_pages>
c010380f:	8b 45 d0             	mov    -0x30(%ebp),%eax
c0103812:	c7 44 24 04 02 00 00 	movl   $0x2,0x4(%esp)
c0103819:	00 
c010381a:	89 04 24             	mov    %eax,(%esp)
c010381d:	e8 a0 fc ff ff       	call   c01034c2 <buddy_free_pages>
c0103822:	c7 04 24 08 00 00 00 	movl   $0x8,(%esp)
c0103829:	e8 ff f9 ff ff       	call   c010322d <buddy_alloc_pages>
c010382e:	89 45 d4             	mov    %eax,-0x2c(%ebp)
c0103831:	c7 04 24 10 00 00 00 	movl   $0x10,(%esp)
c0103838:	e8 f0 f9 ff ff       	call   c010322d <buddy_alloc_pages>
c010383d:	89 45 d8             	mov    %eax,-0x28(%ebp)
c0103840:	c7 04 24 12 00 00 00 	movl   $0x12,(%esp)
c0103847:	e8 e1 f9 ff ff       	call   c010322d <buddy_alloc_pages>
c010384c:	89 45 dc             	mov    %eax,-0x24(%ebp)
c010384f:	c7 04 24 1b 00 00 00 	movl   $0x1b,(%esp)
c0103856:	e8 d2 f9 ff ff       	call   c010322d <buddy_alloc_pages>
c010385b:	89 45 e0             	mov    %eax,-0x20(%ebp)
c010385e:	c7 04 24 20 00 00 00 	movl   $0x20,(%esp)
c0103865:	e8 c3 f9 ff ff       	call   c010322d <buddy_alloc_pages>
c010386a:	89 45 e4             	mov    %eax,-0x1c(%ebp)
c010386d:	c7 04 24 81 00 00 00 	movl   $0x81,(%esp)
c0103874:	e8 b4 f9 ff ff       	call   c010322d <buddy_alloc_pages>
c0103879:	89 45 e8             	mov    %eax,-0x18(%ebp)
c010387c:	c7 04 24 23 02 00 00 	movl   $0x223,(%esp)
c0103883:	e8 a5 f9 ff ff       	call   c010322d <buddy_alloc_pages>
c0103888:	89 45 ec             	mov    %eax,-0x14(%ebp)
c010388b:	8b 45 d4             	mov    -0x2c(%ebp),%eax
c010388e:	c7 44 24 04 08 00 00 	movl   $0x8,0x4(%esp)
c0103895:	00 
c0103896:	89 04 24             	mov    %eax,(%esp)
c0103899:	e8 24 fc ff ff       	call   c01034c2 <buddy_free_pages>
c010389e:	8b 45 d8             	mov    -0x28(%ebp),%eax
c01038a1:	c7 44 24 04 10 00 00 	movl   $0x10,0x4(%esp)
c01038a8:	00 
c01038a9:	89 04 24             	mov    %eax,(%esp)
c01038ac:	e8 11 fc ff ff       	call   c01034c2 <buddy_free_pages>
c01038b1:	8b 45 dc             	mov    -0x24(%ebp),%eax
c01038b4:	c7 44 24 04 12 00 00 	movl   $0x12,0x4(%esp)
c01038bb:	00 
c01038bc:	89 04 24             	mov    %eax,(%esp)
c01038bf:	e8 fe fb ff ff       	call   c01034c2 <buddy_free_pages>
c01038c4:	8b 45 e0             	mov    -0x20(%ebp),%eax
c01038c7:	c7 44 24 04 1b 00 00 	movl   $0x1b,0x4(%esp)
c01038ce:	00 
c01038cf:	89 04 24             	mov    %eax,(%esp)
c01038d2:	e8 eb fb ff ff       	call   c01034c2 <buddy_free_pages>
c01038d7:	8b 45 e4             	mov    -0x1c(%ebp),%eax
c01038da:	c7 44 24 04 20 00 00 	movl   $0x20,0x4(%esp)
c01038e1:	00 
c01038e2:	89 04 24             	mov    %eax,(%esp)
c01038e5:	e8 d8 fb ff ff       	call   c01034c2 <buddy_free_pages>
c01038ea:	8b 45 e8             	mov    -0x18(%ebp),%eax
c01038ed:	c7 44 24 04 81 00 00 	movl   $0x81,0x4(%esp)
c01038f4:	00 
c01038f5:	89 04 24             	mov    %eax,(%esp)
c01038f8:	e8 c5 fb ff ff       	call   c01034c2 <buddy_free_pages>
c01038fd:	8b 45 ec             	mov    -0x14(%ebp),%eax
c0103900:	c7 44 24 04 23 02 00 	movl   $0x223,0x4(%esp)
c0103907:	00 
c0103908:	89 04 24             	mov    %eax,(%esp)
c010390b:	e8 b2 fb ff ff       	call   c01034c2 <buddy_free_pages>
c0103910:	c7 44 24 08 14 9a 10 	movl   $0xc0109a14,0x8(%esp)
c0103917:	c0 
c0103918:	c7 44 24 04 04 00 00 	movl   $0x4,0x4(%esp)
c010391f:	00 
c0103920:	c7 04 24 00 00 00 00 	movl   $0x0,(%esp)
c0103927:	e8 bd 22 00 00       	call   c0105be9 <cprintk>
c010392c:	c7 45 f0 00 00 00 00 	movl   $0x0,-0x10(%ebp)
c0103933:	eb 3d                	jmp    c0103972 <buddy_test_mm+0x233>
c0103935:	8b 45 f0             	mov    -0x10(%ebp),%eax
c0103938:	83 c0 14             	add    $0x14,%eax
c010393b:	c1 e0 02             	shl    $0x2,%eax
c010393e:	05 20 b0 10 c0       	add    $0xc010b020,%eax
c0103943:	83 c0 08             	add    $0x8,%eax
c0103946:	89 04 24             	mov    %eax,(%esp)
c0103949:	e8 e4 f4 ff ff       	call   c0102e32 <atomic_read>
c010394e:	89 44 24 0c          	mov    %eax,0xc(%esp)
c0103952:	c7 44 24 08 0b 9a 10 	movl   $0xc0109a0b,0x8(%esp)
c0103959:	c0 
c010395a:	c7 44 24 04 04 00 00 	movl   $0x4,0x4(%esp)
c0103961:	00 
c0103962:	c7 04 24 00 00 00 00 	movl   $0x0,(%esp)
c0103969:	e8 7b 22 00 00       	call   c0105be9 <cprintk>
c010396e:	83 45 f0 01          	addl   $0x1,-0x10(%ebp)
c0103972:	83 7d f0 0a          	cmpl   $0xa,-0x10(%ebp)
c0103976:	76 bd                	jbe    c0103935 <buddy_test_mm+0x1f6>
c0103978:	c7 04 24 10 9a 10 c0 	movl   $0xc0109a10,(%esp)
c010397f:	e8 23 22 00 00       	call   c0105ba7 <printk>
c0103984:	c9                   	leave  
c0103985:	c3                   	ret    

c0103986 <atomic_set>:
c0103986:	55                   	push   %ebp
c0103987:	89 e5                	mov    %esp,%ebp
c0103989:	8b 45 08             	mov    0x8(%ebp),%eax
c010398c:	8b 55 0c             	mov    0xc(%ebp),%edx
c010398f:	89 10                	mov    %edx,(%eax)
c0103991:	5d                   	pop    %ebp
c0103992:	c3                   	ret    

c0103993 <INIT_LIST_HEAD>:
c0103993:	55                   	push   %ebp
c0103994:	89 e5                	mov    %esp,%ebp
c0103996:	8b 45 08             	mov    0x8(%ebp),%eax
c0103999:	8b 55 08             	mov    0x8(%ebp),%edx
c010399c:	89 10                	mov    %edx,(%eax)
c010399e:	8b 45 08             	mov    0x8(%ebp),%eax
c01039a1:	8b 55 08             	mov    0x8(%ebp),%edx
c01039a4:	89 50 04             	mov    %edx,0x4(%eax)
c01039a7:	5d                   	pop    %ebp
c01039a8:	c3                   	ret    

c01039a9 <__list_add>:
c01039a9:	55                   	push   %ebp
c01039aa:	89 e5                	mov    %esp,%ebp
c01039ac:	8b 45 10             	mov    0x10(%ebp),%eax
c01039af:	8b 55 08             	mov    0x8(%ebp),%edx
c01039b2:	89 50 04             	mov    %edx,0x4(%eax)
c01039b5:	8b 45 08             	mov    0x8(%ebp),%eax
c01039b8:	8b 55 10             	mov    0x10(%ebp),%edx
c01039bb:	89 10                	mov    %edx,(%eax)
c01039bd:	8b 45 08             	mov    0x8(%ebp),%eax
c01039c0:	8b 55 0c             	mov    0xc(%ebp),%edx
c01039c3:	89 50 04             	mov    %edx,0x4(%eax)
c01039c6:	8b 45 0c             	mov    0xc(%ebp),%eax
c01039c9:	8b 55 08             	mov    0x8(%ebp),%edx
c01039cc:	89 10                	mov    %edx,(%eax)
c01039ce:	5d                   	pop    %ebp
c01039cf:	c3                   	ret    

c01039d0 <list_add>:
c01039d0:	55                   	push   %ebp
c01039d1:	89 e5                	mov    %esp,%ebp
c01039d3:	83 ec 0c             	sub    $0xc,%esp
c01039d6:	8b 45 0c             	mov    0xc(%ebp),%eax
c01039d9:	8b 00                	mov    (%eax),%eax
c01039db:	89 44 24 08          	mov    %eax,0x8(%esp)
c01039df:	8b 45 0c             	mov    0xc(%ebp),%eax
c01039e2:	89 44 24 04          	mov    %eax,0x4(%esp)
c01039e6:	8b 45 08             	mov    0x8(%ebp),%eax
c01039e9:	89 04 24             	mov    %eax,(%esp)
c01039ec:	e8 b8 ff ff ff       	call   c01039a9 <__list_add>
c01039f1:	c9                   	leave  
c01039f2:	c3                   	ret    

c01039f3 <vfs_init>:
c01039f3:	55                   	push   %ebp
c01039f4:	89 e5                	mov    %esp,%ebp
c01039f6:	83 ec 28             	sub    $0x28,%esp
c01039f9:	c7 44 24 08 38 9a 10 	movl   $0xc0109a38,0x8(%esp)
c0103a00:	c0 
c0103a01:	c7 44 24 04 0e 00 00 	movl   $0xe,0x4(%esp)
c0103a08:	00 
c0103a09:	c7 04 24 00 00 00 00 	movl   $0x0,(%esp)
c0103a10:	e8 d4 21 00 00       	call   c0105be9 <cprintk>
c0103a15:	c7 04 24 14 00 00 00 	movl   $0x14,(%esp)
c0103a1c:	e8 e6 eb ff ff       	call   c0102607 <kmalloc>
c0103a21:	89 45 f4             	mov    %eax,-0xc(%ebp)
c0103a24:	83 7d f4 00          	cmpl   $0x0,-0xc(%ebp)
c0103a28:	75 0c                	jne    c0103a36 <vfs_init+0x43>
c0103a2a:	c7 04 24 58 9a 10 c0 	movl   $0xc0109a58,(%esp)
c0103a31:	e8 8c 39 00 00       	call   c01073c2 <panic>
c0103a36:	8b 45 f4             	mov    -0xc(%ebp),%eax
c0103a39:	89 04 24             	mov    %eax,(%esp)
c0103a3c:	e8 0d 00 00 00       	call   c0103a4e <init_mount_tree>
c0103a41:	e8 84 49 00 00       	call   c01083ca <get_current>
c0103a46:	8b 55 f4             	mov    -0xc(%ebp),%edx
c0103a49:	89 50 64             	mov    %edx,0x64(%eax)
c0103a4c:	c9                   	leave  
c0103a4d:	c3                   	ret    

c0103a4e <init_mount_tree>:
c0103a4e:	55                   	push   %ebp
c0103a4f:	89 e5                	mov    %esp,%ebp
c0103a51:	83 ec 28             	sub    $0x28,%esp
c0103a54:	c7 04 24 30 90 10 c0 	movl   $0xc0109030,(%esp)
c0103a5b:	e8 37 01 00 00       	call   c0103b97 <add_filesystem>
c0103a60:	c7 04 24 3c 90 10 c0 	movl   $0xc010903c,(%esp)
c0103a67:	e8 27 ff ff ff       	call   c0103993 <INIT_LIST_HEAD>
c0103a6c:	e8 81 01 00 00       	call   c0103bf2 <alloc_super_block>
c0103a71:	89 45 f4             	mov    %eax,-0xc(%ebp)
c0103a74:	c7 44 24 04 30 00 00 	movl   $0x30,0x4(%esp)
c0103a7b:	00 
c0103a7c:	8b 45 f4             	mov    -0xc(%ebp),%eax
c0103a7f:	89 04 24             	mov    %eax,(%esp)
c0103a82:	e8 31 09 00 00       	call   c01043b8 <bzero>
c0103a87:	8b 45 f4             	mov    -0xc(%ebp),%eax
c0103a8a:	83 c0 1c             	add    $0x1c,%eax
c0103a8d:	c7 44 24 04 3c 90 10 	movl   $0xc010903c,0x4(%esp)
c0103a94:	c0 
c0103a95:	89 04 24             	mov    %eax,(%esp)
c0103a98:	e8 33 ff ff ff       	call   c01039d0 <list_add>
c0103a9d:	a1 38 90 10 c0       	mov    0xc0109038,%eax
c0103aa2:	8b 55 f4             	mov    -0xc(%ebp),%edx
c0103aa5:	89 14 24             	mov    %edx,(%esp)
c0103aa8:	ff d0                	call   *%eax
c0103aaa:	e8 9b 01 00 00       	call   c0103c4a <alloc_inode>
c0103aaf:	89 45 f0             	mov    %eax,-0x10(%ebp)
c0103ab2:	c7 44 24 04 38 00 00 	movl   $0x38,0x4(%esp)
c0103ab9:	00 
c0103aba:	8b 45 f0             	mov    -0x10(%ebp),%eax
c0103abd:	89 04 24             	mov    %eax,(%esp)
c0103ac0:	e8 f3 08 00 00       	call   c01043b8 <bzero>
c0103ac5:	8b 45 f0             	mov    -0x10(%ebp),%eax
c0103ac8:	8b 55 f4             	mov    -0xc(%ebp),%edx
c0103acb:	89 50 2c             	mov    %edx,0x2c(%eax)
c0103ace:	e8 cf 01 00 00       	call   c0103ca2 <alloc_dentry>
c0103ad3:	89 45 ec             	mov    %eax,-0x14(%ebp)
c0103ad6:	8b 45 ec             	mov    -0x14(%ebp),%eax
c0103ad9:	c7 44 24 04 00 00 00 	movl   $0x0,0x4(%esp)
c0103ae0:	00 
c0103ae1:	89 04 24             	mov    %eax,(%esp)
c0103ae4:	e8 9d fe ff ff       	call   c0103986 <atomic_set>
c0103ae9:	8b 45 ec             	mov    -0x14(%ebp),%eax
c0103aec:	05 8c 00 00 00       	add    $0x8c,%eax
c0103af1:	89 04 24             	mov    %eax,(%esp)
c0103af4:	e8 9a fe ff ff       	call   c0103993 <INIT_LIST_HEAD>
c0103af9:	8b 45 ec             	mov    -0x14(%ebp),%eax
c0103afc:	05 94 00 00 00       	add    $0x94,%eax
c0103b01:	89 04 24             	mov    %eax,(%esp)
c0103b04:	e8 8a fe ff ff       	call   c0103993 <INIT_LIST_HEAD>
c0103b09:	8b 45 ec             	mov    -0x14(%ebp),%eax
c0103b0c:	c7 80 84 00 00 00 01 	movl   $0x1,0x84(%eax)
c0103b13:	00 00 00 
c0103b16:	8b 45 ec             	mov    -0x14(%ebp),%eax
c0103b19:	c7 80 88 00 00 00 00 	movl   $0x0,0x88(%eax)
c0103b20:	00 00 00 
c0103b23:	8b 45 ec             	mov    -0x14(%ebp),%eax
c0103b26:	8b 55 f4             	mov    -0xc(%ebp),%edx
c0103b29:	89 90 a0 00 00 00    	mov    %edx,0xa0(%eax)
c0103b2f:	8b 45 ec             	mov    -0x14(%ebp),%eax
c0103b32:	8b 55 f0             	mov    -0x10(%ebp),%edx
c0103b35:	89 90 a4 00 00 00    	mov    %edx,0xa4(%eax)
c0103b3b:	8b 45 ec             	mov    -0x14(%ebp),%eax
c0103b3e:	c7 80 9c 00 00 00 00 	movl   $0x0,0x9c(%eax)
c0103b45:	00 00 00 
c0103b48:	8b 45 ec             	mov    -0x14(%ebp),%eax
c0103b4b:	83 c0 08             	add    $0x8,%eax
c0103b4e:	c7 44 24 04 78 9a 10 	movl   $0xc0109a78,0x4(%esp)
c0103b55:	c0 
c0103b56:	89 04 24             	mov    %eax,(%esp)
c0103b59:	e8 dd 08 00 00       	call   c010443b <strcpy>
c0103b5e:	8b 45 f4             	mov    -0xc(%ebp),%eax
c0103b61:	8b 55 ec             	mov    -0x14(%ebp),%edx
c0103b64:	89 50 28             	mov    %edx,0x28(%eax)
c0103b67:	8b 45 08             	mov    0x8(%ebp),%eax
c0103b6a:	c7 00 7a 9a 10 c0    	movl   $0xc0109a7a,(%eax)
c0103b70:	8b 45 08             	mov    0x8(%ebp),%eax
c0103b73:	8b 55 f4             	mov    -0xc(%ebp),%edx
c0103b76:	89 50 04             	mov    %edx,0x4(%eax)
c0103b79:	8b 45 08             	mov    0x8(%ebp),%eax
c0103b7c:	8b 55 ec             	mov    -0x14(%ebp),%edx
c0103b7f:	89 50 08             	mov    %edx,0x8(%eax)
c0103b82:	8b 45 08             	mov    0x8(%ebp),%eax
c0103b85:	8b 55 ec             	mov    -0x14(%ebp),%edx
c0103b88:	89 50 0c             	mov    %edx,0xc(%eax)
c0103b8b:	8b 45 08             	mov    0x8(%ebp),%eax
c0103b8e:	c7 40 10 00 00 00 00 	movl   $0x0,0x10(%eax)
c0103b95:	c9                   	leave  
c0103b96:	c3                   	ret    

c0103b97 <add_filesystem>:
c0103b97:	55                   	push   %ebp
c0103b98:	89 e5                	mov    %esp,%ebp
c0103b9a:	83 ec 28             	sub    $0x28,%esp
c0103b9d:	a1 00 70 11 c0       	mov    0xc0117000,%eax
c0103ba2:	89 45 f4             	mov    %eax,-0xc(%ebp)
c0103ba5:	eb 2a                	jmp    c0103bd1 <add_filesystem+0x3a>
c0103ba7:	8b 45 08             	mov    0x8(%ebp),%eax
c0103baa:	8b 10                	mov    (%eax),%edx
c0103bac:	8b 45 f4             	mov    -0xc(%ebp),%eax
c0103baf:	8b 00                	mov    (%eax),%eax
c0103bb1:	89 54 24 04          	mov    %edx,0x4(%esp)
c0103bb5:	89 04 24             	mov    %eax,(%esp)
c0103bb8:	e8 1d 08 00 00       	call   c01043da <strcmp>
c0103bbd:	85 c0                	test   %eax,%eax
c0103bbf:	75 07                	jne    c0103bc8 <add_filesystem+0x31>
c0103bc1:	b8 ff ff ff ff       	mov    $0xffffffff,%eax
c0103bc6:	eb 28                	jmp    c0103bf0 <add_filesystem+0x59>
c0103bc8:	8b 45 f4             	mov    -0xc(%ebp),%eax
c0103bcb:	8b 40 14             	mov    0x14(%eax),%eax
c0103bce:	89 45 f4             	mov    %eax,-0xc(%ebp)
c0103bd1:	83 7d f4 00          	cmpl   $0x0,-0xc(%ebp)
c0103bd5:	75 d0                	jne    c0103ba7 <add_filesystem+0x10>
c0103bd7:	8b 15 00 70 11 c0    	mov    0xc0117000,%edx
c0103bdd:	8b 45 08             	mov    0x8(%ebp),%eax
c0103be0:	89 50 14             	mov    %edx,0x14(%eax)
c0103be3:	8b 45 08             	mov    0x8(%ebp),%eax
c0103be6:	a3 00 70 11 c0       	mov    %eax,0xc0117000
c0103beb:	b8 00 00 00 00       	mov    $0x0,%eax
c0103bf0:	c9                   	leave  
c0103bf1:	c3                   	ret    

c0103bf2 <alloc_super_block>:
c0103bf2:	55                   	push   %ebp
c0103bf3:	89 e5                	mov    %esp,%ebp
c0103bf5:	83 ec 28             	sub    $0x28,%esp
c0103bf8:	c7 04 24 30 00 00 00 	movl   $0x30,(%esp)
c0103bff:	e8 03 ea ff ff       	call   c0102607 <kmalloc>
c0103c04:	89 45 f4             	mov    %eax,-0xc(%ebp)
c0103c07:	83 7d f4 00          	cmpl   $0x0,-0xc(%ebp)
c0103c0b:	75 0c                	jne    c0103c19 <alloc_super_block+0x27>
c0103c0d:	c7 04 24 7e 9a 10 c0 	movl   $0xc0109a7e,(%esp)
c0103c14:	e8 a9 37 00 00       	call   c01073c2 <panic>
c0103c19:	8b 45 f4             	mov    -0xc(%ebp),%eax
c0103c1c:	c9                   	leave  
c0103c1d:	c3                   	ret    

c0103c1e <alloc_super_block_ops>:
c0103c1e:	55                   	push   %ebp
c0103c1f:	89 e5                	mov    %esp,%ebp
c0103c21:	83 ec 28             	sub    $0x28,%esp
c0103c24:	c7 04 24 10 00 00 00 	movl   $0x10,(%esp)
c0103c2b:	e8 d7 e9 ff ff       	call   c0102607 <kmalloc>
c0103c30:	89 45 f4             	mov    %eax,-0xc(%ebp)
c0103c33:	83 7d f4 00          	cmpl   $0x0,-0xc(%ebp)
c0103c37:	75 0c                	jne    c0103c45 <alloc_super_block_ops+0x27>
c0103c39:	c7 04 24 98 9a 10 c0 	movl   $0xc0109a98,(%esp)
c0103c40:	e8 7d 37 00 00       	call   c01073c2 <panic>
c0103c45:	8b 45 f4             	mov    -0xc(%ebp),%eax
c0103c48:	c9                   	leave  
c0103c49:	c3                   	ret    

c0103c4a <alloc_inode>:
c0103c4a:	55                   	push   %ebp
c0103c4b:	89 e5                	mov    %esp,%ebp
c0103c4d:	83 ec 28             	sub    $0x28,%esp
c0103c50:	c7 04 24 38 00 00 00 	movl   $0x38,(%esp)
c0103c57:	e8 ab e9 ff ff       	call   c0102607 <kmalloc>
c0103c5c:	89 45 f4             	mov    %eax,-0xc(%ebp)
c0103c5f:	83 7d f4 00          	cmpl   $0x0,-0xc(%ebp)
c0103c63:	75 0c                	jne    c0103c71 <alloc_inode+0x27>
c0103c65:	c7 04 24 b6 9a 10 c0 	movl   $0xc0109ab6,(%esp)
c0103c6c:	e8 51 37 00 00       	call   c01073c2 <panic>
c0103c71:	8b 45 f4             	mov    -0xc(%ebp),%eax
c0103c74:	c9                   	leave  
c0103c75:	c3                   	ret    

c0103c76 <alloc_inode_ops>:
c0103c76:	55                   	push   %ebp
c0103c77:	89 e5                	mov    %esp,%ebp
c0103c79:	83 ec 28             	sub    $0x28,%esp
c0103c7c:	c7 04 24 14 00 00 00 	movl   $0x14,(%esp)
c0103c83:	e8 7f e9 ff ff       	call   c0102607 <kmalloc>
c0103c88:	89 45 f4             	mov    %eax,-0xc(%ebp)
c0103c8b:	83 7d f4 00          	cmpl   $0x0,-0xc(%ebp)
c0103c8f:	75 0c                	jne    c0103c9d <alloc_inode_ops+0x27>
c0103c91:	c7 04 24 ca 9a 10 c0 	movl   $0xc0109aca,(%esp)
c0103c98:	e8 25 37 00 00       	call   c01073c2 <panic>
c0103c9d:	8b 45 f4             	mov    -0xc(%ebp),%eax
c0103ca0:	c9                   	leave  
c0103ca1:	c3                   	ret    

c0103ca2 <alloc_dentry>:
c0103ca2:	55                   	push   %ebp
c0103ca3:	89 e5                	mov    %esp,%ebp
c0103ca5:	83 ec 28             	sub    $0x28,%esp
c0103ca8:	c7 04 24 ac 00 00 00 	movl   $0xac,(%esp)
c0103caf:	e8 53 e9 ff ff       	call   c0102607 <kmalloc>
c0103cb4:	89 45 f4             	mov    %eax,-0xc(%ebp)
c0103cb7:	83 7d f4 00          	cmpl   $0x0,-0xc(%ebp)
c0103cbb:	75 0c                	jne    c0103cc9 <alloc_dentry+0x27>
c0103cbd:	c7 04 24 e2 9a 10 c0 	movl   $0xc0109ae2,(%esp)
c0103cc4:	e8 f9 36 00 00       	call   c01073c2 <panic>
c0103cc9:	8b 45 f4             	mov    -0xc(%ebp),%eax
c0103ccc:	c9                   	leave  
c0103ccd:	c3                   	ret    

c0103cce <alloc_dentry_ops>:
c0103cce:	55                   	push   %ebp
c0103ccf:	89 e5                	mov    %esp,%ebp
c0103cd1:	83 ec 28             	sub    $0x28,%esp
c0103cd4:	c7 04 24 04 00 00 00 	movl   $0x4,(%esp)
c0103cdb:	e8 27 e9 ff ff       	call   c0102607 <kmalloc>
c0103ce0:	89 45 f4             	mov    %eax,-0xc(%ebp)
c0103ce3:	83 7d f4 00          	cmpl   $0x0,-0xc(%ebp)
c0103ce7:	75 0c                	jne    c0103cf5 <alloc_dentry_ops+0x27>
c0103ce9:	c7 04 24 f7 9a 10 c0 	movl   $0xc0109af7,(%esp)
c0103cf0:	e8 cd 36 00 00       	call   c01073c2 <panic>
c0103cf5:	8b 45 f4             	mov    -0xc(%ebp),%eax
c0103cf8:	c9                   	leave  
c0103cf9:	c3                   	ret    

c0103cfa <alloc_file>:
c0103cfa:	55                   	push   %ebp
c0103cfb:	89 e5                	mov    %esp,%ebp
c0103cfd:	83 ec 28             	sub    $0x28,%esp
c0103d00:	c7 04 24 1c 04 00 00 	movl   $0x41c,(%esp)
c0103d07:	e8 fb e8 ff ff       	call   c0102607 <kmalloc>
c0103d0c:	89 45 f4             	mov    %eax,-0xc(%ebp)
c0103d0f:	83 7d f4 00          	cmpl   $0x0,-0xc(%ebp)
c0103d13:	75 0c                	jne    c0103d21 <alloc_file+0x27>
c0103d15:	c7 04 24 10 9b 10 c0 	movl   $0xc0109b10,(%esp)
c0103d1c:	e8 a1 36 00 00       	call   c01073c2 <panic>
c0103d21:	8b 45 f4             	mov    -0xc(%ebp),%eax
c0103d24:	c9                   	leave  
c0103d25:	c3                   	ret    

c0103d26 <alloc_file_ops>:
c0103d26:	55                   	push   %ebp
c0103d27:	89 e5                	mov    %esp,%ebp
c0103d29:	83 ec 28             	sub    $0x28,%esp
c0103d2c:	c7 04 24 14 00 00 00 	movl   $0x14,(%esp)
c0103d33:	e8 cf e8 ff ff       	call   c0102607 <kmalloc>
c0103d38:	89 45 f4             	mov    %eax,-0xc(%ebp)
c0103d3b:	83 7d f4 00          	cmpl   $0x0,-0xc(%ebp)
c0103d3f:	75 0c                	jne    c0103d4d <alloc_file_ops+0x27>
c0103d41:	c7 04 24 23 9b 10 c0 	movl   $0xc0109b23,(%esp)
c0103d48:	e8 75 36 00 00       	call   c01073c2 <panic>
c0103d4d:	8b 45 f4             	mov    -0xc(%ebp),%eax
c0103d50:	c9                   	leave  
c0103d51:	c3                   	ret    

c0103d52 <free_super_block>:
c0103d52:	55                   	push   %ebp
c0103d53:	89 e5                	mov    %esp,%ebp
c0103d55:	83 ec 18             	sub    $0x18,%esp
c0103d58:	83 7d 08 00          	cmpl   $0x0,0x8(%ebp)
c0103d5c:	75 0c                	jne    c0103d6a <free_super_block+0x18>
c0103d5e:	c7 04 24 3c 9b 10 c0 	movl   $0xc0109b3c,(%esp)
c0103d65:	e8 58 36 00 00       	call   c01073c2 <panic>
c0103d6a:	8b 45 08             	mov    0x8(%ebp),%eax
c0103d6d:	89 04 24             	mov    %eax,(%esp)
c0103d70:	e8 27 e9 ff ff       	call   c010269c <kfree>
c0103d75:	c9                   	leave  
c0103d76:	c3                   	ret    

c0103d77 <free_super_block_ops>:
c0103d77:	55                   	push   %ebp
c0103d78:	89 e5                	mov    %esp,%ebp
c0103d7a:	83 ec 18             	sub    $0x18,%esp
c0103d7d:	83 7d 08 00          	cmpl   $0x0,0x8(%ebp)
c0103d81:	75 0c                	jne    c0103d8f <free_super_block_ops+0x18>
c0103d83:	c7 04 24 60 9b 10 c0 	movl   $0xc0109b60,(%esp)
c0103d8a:	e8 33 36 00 00       	call   c01073c2 <panic>
c0103d8f:	8b 45 08             	mov    0x8(%ebp),%eax
c0103d92:	89 04 24             	mov    %eax,(%esp)
c0103d95:	e8 02 e9 ff ff       	call   c010269c <kfree>
c0103d9a:	c9                   	leave  
c0103d9b:	c3                   	ret    

c0103d9c <free_inode>:
c0103d9c:	55                   	push   %ebp
c0103d9d:	89 e5                	mov    %esp,%ebp
c0103d9f:	83 ec 18             	sub    $0x18,%esp
c0103da2:	83 7d 08 00          	cmpl   $0x0,0x8(%ebp)
c0103da6:	75 0c                	jne    c0103db4 <free_inode+0x18>
c0103da8:	c7 04 24 8c 9b 10 c0 	movl   $0xc0109b8c,(%esp)
c0103daf:	e8 0e 36 00 00       	call   c01073c2 <panic>
c0103db4:	8b 45 08             	mov    0x8(%ebp),%eax
c0103db7:	89 04 24             	mov    %eax,(%esp)
c0103dba:	e8 dd e8 ff ff       	call   c010269c <kfree>
c0103dbf:	c9                   	leave  
c0103dc0:	c3                   	ret    

c0103dc1 <free_inode_ops>:
c0103dc1:	55                   	push   %ebp
c0103dc2:	89 e5                	mov    %esp,%ebp
c0103dc4:	83 ec 18             	sub    $0x18,%esp
c0103dc7:	83 7d 08 00          	cmpl   $0x0,0x8(%ebp)
c0103dcb:	75 0c                	jne    c0103dd9 <free_inode_ops+0x18>
c0103dcd:	c7 04 24 b0 9b 10 c0 	movl   $0xc0109bb0,(%esp)
c0103dd4:	e8 e9 35 00 00       	call   c01073c2 <panic>
c0103dd9:	8b 45 08             	mov    0x8(%ebp),%eax
c0103ddc:	89 04 24             	mov    %eax,(%esp)
c0103ddf:	e8 b8 e8 ff ff       	call   c010269c <kfree>
c0103de4:	c9                   	leave  
c0103de5:	c3                   	ret    

c0103de6 <free_dentry>:
c0103de6:	55                   	push   %ebp
c0103de7:	89 e5                	mov    %esp,%ebp
c0103de9:	83 ec 18             	sub    $0x18,%esp
c0103dec:	83 7d 08 00          	cmpl   $0x0,0x8(%ebp)
c0103df0:	75 0c                	jne    c0103dfe <free_dentry+0x18>
c0103df2:	c7 04 24 dc 9b 10 c0 	movl   $0xc0109bdc,(%esp)
c0103df9:	e8 c4 35 00 00       	call   c01073c2 <panic>
c0103dfe:	8b 45 08             	mov    0x8(%ebp),%eax
c0103e01:	89 04 24             	mov    %eax,(%esp)
c0103e04:	e8 93 e8 ff ff       	call   c010269c <kfree>
c0103e09:	c9                   	leave  
c0103e0a:	c3                   	ret    

c0103e0b <free_dentry_ops>:
c0103e0b:	55                   	push   %ebp
c0103e0c:	89 e5                	mov    %esp,%ebp
c0103e0e:	83 ec 18             	sub    $0x18,%esp
c0103e11:	83 7d 08 00          	cmpl   $0x0,0x8(%ebp)
c0103e15:	75 0c                	jne    c0103e23 <free_dentry_ops+0x18>
c0103e17:	c7 04 24 00 9c 10 c0 	movl   $0xc0109c00,(%esp)
c0103e1e:	e8 9f 35 00 00       	call   c01073c2 <panic>
c0103e23:	8b 45 08             	mov    0x8(%ebp),%eax
c0103e26:	89 04 24             	mov    %eax,(%esp)
c0103e29:	e8 6e e8 ff ff       	call   c010269c <kfree>
c0103e2e:	c9                   	leave  
c0103e2f:	c3                   	ret    

c0103e30 <free_file>:
c0103e30:	55                   	push   %ebp
c0103e31:	89 e5                	mov    %esp,%ebp
c0103e33:	83 ec 18             	sub    $0x18,%esp
c0103e36:	83 7d 08 00          	cmpl   $0x0,0x8(%ebp)
c0103e3a:	75 0c                	jne    c0103e48 <free_file+0x18>
c0103e3c:	c7 04 24 2c 9c 10 c0 	movl   $0xc0109c2c,(%esp)
c0103e43:	e8 7a 35 00 00       	call   c01073c2 <panic>
c0103e48:	8b 45 08             	mov    0x8(%ebp),%eax
c0103e4b:	89 04 24             	mov    %eax,(%esp)
c0103e4e:	e8 49 e8 ff ff       	call   c010269c <kfree>
c0103e53:	c9                   	leave  
c0103e54:	c3                   	ret    

c0103e55 <free_file_ops>:
c0103e55:	55                   	push   %ebp
c0103e56:	89 e5                	mov    %esp,%ebp
c0103e58:	83 ec 18             	sub    $0x18,%esp
c0103e5b:	83 7d 08 00          	cmpl   $0x0,0x8(%ebp)
c0103e5f:	75 0c                	jne    c0103e6d <free_file_ops+0x18>
c0103e61:	c7 04 24 4c 9c 10 c0 	movl   $0xc0109c4c,(%esp)
c0103e68:	e8 55 35 00 00       	call   c01073c2 <panic>
c0103e6d:	8b 45 08             	mov    0x8(%ebp),%eax
c0103e70:	89 04 24             	mov    %eax,(%esp)
c0103e73:	e8 24 e8 ff ff       	call   c010269c <kfree>
c0103e78:	c9                   	leave  
c0103e79:	c3                   	ret    

c0103e7a <vfs_open>:
c0103e7a:	55                   	push   %ebp
c0103e7b:	89 e5                	mov    %esp,%ebp
c0103e7d:	83 7d 08 00          	cmpl   $0x0,0x8(%ebp)
c0103e81:	74 06                	je     c0103e89 <vfs_open+0xf>
c0103e83:	83 7d 0c 00          	cmpl   $0x0,0xc(%ebp)
c0103e87:	75 07                	jne    c0103e90 <vfs_open+0x16>
c0103e89:	b8 00 00 00 00       	mov    $0x0,%eax
c0103e8e:	eb 05                	jmp    c0103e95 <vfs_open+0x1b>
c0103e90:	b8 00 00 00 00       	mov    $0x0,%eax
c0103e95:	5d                   	pop    %ebp
c0103e96:	c3                   	ret    

c0103e97 <vfs_close>:
c0103e97:	55                   	push   %ebp
c0103e98:	89 e5                	mov    %esp,%ebp
c0103e9a:	8b 45 08             	mov    0x8(%ebp),%eax
c0103e9d:	5d                   	pop    %ebp
c0103e9e:	c3                   	ret    

c0103e9f <vfs_read>:
c0103e9f:	55                   	push   %ebp
c0103ea0:	89 e5                	mov    %esp,%ebp
c0103ea2:	83 7d 0c 00          	cmpl   $0x0,0xc(%ebp)
c0103ea6:	74 06                	je     c0103eae <vfs_read+0xf>
c0103ea8:	83 7d 10 00          	cmpl   $0x0,0x10(%ebp)
c0103eac:	75 07                	jne    c0103eb5 <vfs_read+0x16>
c0103eae:	b8 00 00 00 00       	mov    $0x0,%eax
c0103eb3:	eb 03                	jmp    c0103eb8 <vfs_read+0x19>
c0103eb5:	8b 45 08             	mov    0x8(%ebp),%eax
c0103eb8:	5d                   	pop    %ebp
c0103eb9:	c3                   	ret    

c0103eba <vfs_write>:
c0103eba:	55                   	push   %ebp
c0103ebb:	89 e5                	mov    %esp,%ebp
c0103ebd:	83 7d 0c 00          	cmpl   $0x0,0xc(%ebp)
c0103ec1:	74 06                	je     c0103ec9 <vfs_write+0xf>
c0103ec3:	83 7d 10 00          	cmpl   $0x0,0x10(%ebp)
c0103ec7:	75 07                	jne    c0103ed0 <vfs_write+0x16>
c0103ec9:	b8 00 00 00 00       	mov    $0x0,%eax
c0103ece:	eb 03                	jmp    c0103ed3 <vfs_write+0x19>
c0103ed0:	8b 45 08             	mov    0x8(%ebp),%eax
c0103ed3:	5d                   	pop    %ebp
c0103ed4:	c3                   	ret    

c0103ed5 <ramfs_read_super>:
c0103ed5:	55                   	push   %ebp
c0103ed6:	89 e5                	mov    %esp,%ebp
c0103ed8:	8b 45 08             	mov    0x8(%ebp),%eax
c0103edb:	66 c7 00 a0 00       	movw   $0xa0,(%eax)
c0103ee0:	8b 45 08             	mov    0x8(%ebp),%eax
c0103ee3:	c7 40 2c 48 90 10 c0 	movl   $0xc0109048,0x2c(%eax)
c0103eea:	8b 45 08             	mov    0x8(%ebp),%eax
c0103eed:	5d                   	pop    %ebp
c0103eee:	c3                   	ret    

c0103eef <ramfs_alloc_inode>:
c0103eef:	55                   	push   %ebp
c0103ef0:	89 e5                	mov    %esp,%ebp
c0103ef2:	83 ec 08             	sub    $0x8,%esp
c0103ef5:	e8 50 fd ff ff       	call   c0103c4a <alloc_inode>
c0103efa:	c9                   	leave  
c0103efb:	c3                   	ret    

c0103efc <ramfs_destroy_inode>:
c0103efc:	55                   	push   %ebp
c0103efd:	89 e5                	mov    %esp,%ebp
c0103eff:	83 ec 18             	sub    $0x18,%esp
c0103f02:	8b 45 08             	mov    0x8(%ebp),%eax
c0103f05:	89 04 24             	mov    %eax,(%esp)
c0103f08:	e8 8f fe ff ff       	call   c0103d9c <free_inode>
c0103f0d:	c9                   	leave  
c0103f0e:	c3                   	ret    

c0103f0f <ramfs_write_super>:
c0103f0f:	55                   	push   %ebp
c0103f10:	89 e5                	mov    %esp,%ebp
c0103f12:	5d                   	pop    %ebp
c0103f13:	c3                   	ret    

c0103f14 <ramfs_sync_fs>:
c0103f14:	55                   	push   %ebp
c0103f15:	89 e5                	mov    %esp,%ebp
c0103f17:	b8 00 00 00 00       	mov    $0x0,%eax
c0103f1c:	5d                   	pop    %ebp
c0103f1d:	c3                   	ret    

c0103f1e <sfs_init>:
c0103f1e:	55                   	push   %ebp
c0103f1f:	89 e5                	mov    %esp,%ebp
c0103f21:	83 ec 38             	sub    $0x38,%esp
c0103f24:	c7 44 24 08 80 9c 10 	movl   $0xc0109c80,0x8(%esp)
c0103f2b:	c0 
c0103f2c:	c7 44 24 04 03 00 00 	movl   $0x3,0x4(%esp)
c0103f33:	00 
c0103f34:	c7 04 24 00 00 00 00 	movl   $0x0,(%esp)
c0103f3b:	e8 a9 1c 00 00       	call   c0105be9 <cprintk>
c0103f40:	c7 04 24 58 90 10 c0 	movl   $0xc0109058,(%esp)
c0103f47:	e8 4b fc ff ff       	call   c0103b97 <add_filesystem>
c0103f4c:	83 f8 ff             	cmp    $0xffffffff,%eax
c0103f4f:	75 0c                	jne    c0103f5d <sfs_init+0x3f>
c0103f51:	c7 04 24 9a 9c 10 c0 	movl   $0xc0109c9a,(%esp)
c0103f58:	e8 4a 1c 00 00       	call   c0105ba7 <printk>
c0103f5d:	c7 45 f4 00 00 00 00 	movl   $0x0,-0xc(%ebp)
c0103f64:	c7 45 f0 00 00 00 00 	movl   $0x0,-0x10(%ebp)
c0103f6b:	c7 45 ec 00 00 00 00 	movl   $0x0,-0x14(%ebp)
c0103f72:	e9 a7 00 00 00       	jmp    c010401e <sfs_init+0x100>
c0103f77:	8b 45 ec             	mov    -0x14(%ebp),%eax
c0103f7a:	83 c0 1b             	add    $0x1b,%eax
c0103f7d:	c1 e0 04             	shl    $0x4,%eax
c0103f80:	05 32 70 11 c0       	add    $0xc0117032,%eax
c0103f85:	0f b6 00             	movzbl (%eax),%eax
c0103f88:	3c aa                	cmp    $0xaa,%al
c0103f8a:	0f 85 8a 00 00 00    	jne    c010401a <sfs_init+0xfc>
c0103f90:	c7 44 24 08 b8 9c 10 	movl   $0xc0109cb8,0x8(%esp)
c0103f97:	c0 
c0103f98:	c7 44 24 04 03 00 00 	movl   $0x3,0x4(%esp)
c0103f9f:	00 
c0103fa0:	c7 04 24 00 00 00 00 	movl   $0x0,(%esp)
c0103fa7:	e8 3d 1c 00 00       	call   c0105be9 <cprintk>
c0103fac:	8b 45 ec             	mov    -0x14(%ebp),%eax
c0103faf:	83 c0 1b             	add    $0x1b,%eax
c0103fb2:	c1 e0 04             	shl    $0x4,%eax
c0103fb5:	05 20 70 11 c0       	add    $0xc0117020,%eax
c0103fba:	8b 50 1a             	mov    0x1a(%eax),%edx
c0103fbd:	8b 45 ec             	mov    -0x14(%ebp),%eax
c0103fc0:	83 c0 1b             	add    $0x1b,%eax
c0103fc3:	c1 e0 04             	shl    $0x4,%eax
c0103fc6:	05 20 70 11 c0       	add    $0xc0117020,%eax
c0103fcb:	8b 40 16             	mov    0x16(%eax),%eax
c0103fce:	89 54 24 10          	mov    %edx,0x10(%esp)
c0103fd2:	89 44 24 0c          	mov    %eax,0xc(%esp)
c0103fd6:	c7 44 24 08 da 9c 10 	movl   $0xc0109cda,0x8(%esp)
c0103fdd:	c0 
c0103fde:	c7 44 24 04 03 00 00 	movl   $0x3,0x4(%esp)
c0103fe5:	00 
c0103fe6:	c7 04 24 00 00 00 00 	movl   $0x0,(%esp)
c0103fed:	e8 f7 1b 00 00       	call   c0105be9 <cprintk>
c0103ff2:	8b 45 ec             	mov    -0x14(%ebp),%eax
c0103ff5:	83 c0 1b             	add    $0x1b,%eax
c0103ff8:	c1 e0 04             	shl    $0x4,%eax
c0103ffb:	05 20 70 11 c0       	add    $0xc0117020,%eax
c0104000:	8b 40 16             	mov    0x16(%eax),%eax
c0104003:	89 45 f4             	mov    %eax,-0xc(%ebp)
c0104006:	8b 45 ec             	mov    -0x14(%ebp),%eax
c0104009:	83 c0 1b             	add    $0x1b,%eax
c010400c:	c1 e0 04             	shl    $0x4,%eax
c010400f:	05 20 70 11 c0       	add    $0xc0117020,%eax
c0104014:	8b 40 1a             	mov    0x1a(%eax),%eax
c0104017:	89 45 f0             	mov    %eax,-0x10(%ebp)
c010401a:	83 45 ec 01          	addl   $0x1,-0x14(%ebp)
c010401e:	83 7d ec 03          	cmpl   $0x3,-0x14(%ebp)
c0104022:	0f 8e 4f ff ff ff    	jle    c0103f77 <sfs_init+0x59>
c0104028:	83 7d f4 00          	cmpl   $0x0,-0xc(%ebp)
c010402c:	74 28                	je     c0104056 <sfs_init+0x138>
c010402e:	83 7d f0 00          	cmpl   $0x0,-0x10(%ebp)
c0104032:	74 22                	je     c0104056 <sfs_init+0x138>
c0104034:	8b 45 f0             	mov    -0x10(%ebp),%eax
c0104037:	3b 45 f4             	cmp    -0xc(%ebp),%eax
c010403a:	76 1a                	jbe    c0104056 <sfs_init+0x138>
c010403c:	c7 44 24 08 00 08 00 	movl   $0x800,0x8(%esp)
c0104043:	00 
c0104044:	8b 45 f0             	mov    -0x10(%ebp),%eax
c0104047:	89 44 24 04          	mov    %eax,0x4(%esp)
c010404b:	8b 45 f4             	mov    -0xc(%ebp),%eax
c010404e:	89 04 24             	mov    %eax,(%esp)
c0104051:	e8 02 00 00 00       	call   c0104058 <sfs_mkfs>
c0104056:	c9                   	leave  
c0104057:	c3                   	ret    

c0104058 <sfs_mkfs>:
c0104058:	55                   	push   %ebp
c0104059:	89 e5                	mov    %esp,%ebp
c010405b:	81 ec 88 00 00 00    	sub    $0x88,%esp
c0104061:	8b 45 08             	mov    0x8(%ebp),%eax
c0104064:	83 c0 04             	add    $0x4,%eax
c0104067:	89 45 f4             	mov    %eax,-0xc(%ebp)
c010406a:	8b 45 08             	mov    0x8(%ebp),%eax
c010406d:	8b 55 0c             	mov    0xc(%ebp),%edx
c0104070:	29 c2                	sub    %eax,%edx
c0104072:	89 d0                	mov    %edx,%eax
c0104074:	83 e8 0c             	sub    $0xc,%eax
c0104077:	89 45 f0             	mov    %eax,-0x10(%ebp)
c010407a:	8b 45 f0             	mov    -0x10(%ebp),%eax
c010407d:	ba cd cc cc cc       	mov    $0xcccccccd,%edx
c0104082:	f7 e2                	mul    %edx
c0104084:	89 d0                	mov    %edx,%eax
c0104086:	c1 e8 03             	shr    $0x3,%eax
c0104089:	89 45 ec             	mov    %eax,-0x14(%ebp)
c010408c:	8b 45 f0             	mov    -0x10(%ebp),%eax
c010408f:	ba cd cc cc cc       	mov    $0xcccccccd,%edx
c0104094:	f7 e2                	mul    %edx
c0104096:	c1 ea 03             	shr    $0x3,%edx
c0104099:	89 d0                	mov    %edx,%eax
c010409b:	c1 e0 03             	shl    $0x3,%eax
c010409e:	01 d0                	add    %edx,%eax
c01040a0:	89 45 e8             	mov    %eax,-0x18(%ebp)
c01040a3:	8b 45 ec             	mov    -0x14(%ebp),%eax
c01040a6:	89 45 e4             	mov    %eax,-0x1c(%ebp)
c01040a9:	8b 45 10             	mov    0x10(%ebp),%eax
c01040ac:	c1 e8 09             	shr    $0x9,%eax
c01040af:	89 c1                	mov    %eax,%ecx
c01040b1:	8b 45 e8             	mov    -0x18(%ebp),%eax
c01040b4:	ba 00 00 00 00       	mov    $0x0,%edx
c01040b9:	f7 f1                	div    %ecx
c01040bb:	89 45 e0             	mov    %eax,-0x20(%ebp)
c01040be:	8b 45 08             	mov    0x8(%ebp),%eax
c01040c1:	83 c0 0c             	add    $0xc,%eax
c01040c4:	89 45 dc             	mov    %eax,-0x24(%ebp)
c01040c7:	8b 45 ec             	mov    -0x14(%ebp),%eax
c01040ca:	c1 e8 09             	shr    $0x9,%eax
c01040cd:	83 c0 01             	add    $0x1,%eax
c01040d0:	89 45 d8             	mov    %eax,-0x28(%ebp)
c01040d3:	8b 45 d8             	mov    -0x28(%ebp),%eax
c01040d6:	8b 55 dc             	mov    -0x24(%ebp),%edx
c01040d9:	01 d0                	add    %edx,%eax
c01040db:	89 45 d4             	mov    %eax,-0x2c(%ebp)
c01040de:	8b 45 e8             	mov    -0x18(%ebp),%eax
c01040e1:	ba 00 00 00 00       	mov    $0x0,%edx
c01040e6:	f7 75 10             	divl   0x10(%ebp)
c01040e9:	83 c0 01             	add    $0x1,%eax
c01040ec:	89 45 d0             	mov    %eax,-0x30(%ebp)
c01040ef:	8b 45 d0             	mov    -0x30(%ebp),%eax
c01040f2:	8b 55 d4             	mov    -0x2c(%ebp),%edx
c01040f5:	01 d0                	add    %edx,%eax
c01040f7:	89 45 cc             	mov    %eax,-0x34(%ebp)
c01040fa:	8b 45 ec             	mov    -0x14(%ebp),%eax
c01040fd:	8b 55 cc             	mov    -0x34(%ebp),%edx
c0104100:	01 d0                	add    %edx,%eax
c0104102:	89 45 c8             	mov    %eax,-0x38(%ebp)
c0104105:	8b 45 f4             	mov    -0xc(%ebp),%eax
c0104108:	89 44 24 04          	mov    %eax,0x4(%esp)
c010410c:	c7 04 24 f0 9c 10 c0 	movl   $0xc0109cf0,(%esp)
c0104113:	e8 8f 1a 00 00       	call   c0105ba7 <printk>
c0104118:	8b 45 f0             	mov    -0x10(%ebp),%eax
c010411b:	89 44 24 04          	mov    %eax,0x4(%esp)
c010411f:	c7 04 24 07 9d 10 c0 	movl   $0xc0109d07,(%esp)
c0104126:	e8 7c 1a 00 00       	call   c0105ba7 <printk>
c010412b:	8b 45 dc             	mov    -0x24(%ebp),%eax
c010412e:	89 44 24 04          	mov    %eax,0x4(%esp)
c0104132:	c7 04 24 1f 9d 10 c0 	movl   $0xc0109d1f,(%esp)
c0104139:	e8 69 1a 00 00       	call   c0105ba7 <printk>
c010413e:	8b 45 d8             	mov    -0x28(%ebp),%eax
c0104141:	89 44 24 04          	mov    %eax,0x4(%esp)
c0104145:	c7 04 24 36 9d 10 c0 	movl   $0xc0109d36,(%esp)
c010414c:	e8 56 1a 00 00       	call   c0105ba7 <printk>
c0104151:	8b 45 d4             	mov    -0x2c(%ebp),%eax
c0104154:	89 44 24 04          	mov    %eax,0x4(%esp)
c0104158:	c7 04 24 4e 9d 10 c0 	movl   $0xc0109d4e,(%esp)
c010415f:	e8 43 1a 00 00       	call   c0105ba7 <printk>
c0104164:	8b 45 d0             	mov    -0x30(%ebp),%eax
c0104167:	89 44 24 04          	mov    %eax,0x4(%esp)
c010416b:	c7 04 24 65 9d 10 c0 	movl   $0xc0109d65,(%esp)
c0104172:	e8 30 1a 00 00       	call   c0105ba7 <printk>
c0104177:	8b 45 cc             	mov    -0x34(%ebp),%eax
c010417a:	89 44 24 04          	mov    %eax,0x4(%esp)
c010417e:	c7 04 24 7d 9d 10 c0 	movl   $0xc0109d7d,(%esp)
c0104185:	e8 1d 1a 00 00       	call   c0105ba7 <printk>
c010418a:	8b 45 ec             	mov    -0x14(%ebp),%eax
c010418d:	89 44 24 04          	mov    %eax,0x4(%esp)
c0104191:	c7 04 24 94 9d 10 c0 	movl   $0xc0109d94,(%esp)
c0104198:	e8 0a 1a 00 00       	call   c0105ba7 <printk>
c010419d:	8b 45 e4             	mov    -0x1c(%ebp),%eax
c01041a0:	89 44 24 04          	mov    %eax,0x4(%esp)
c01041a4:	c7 04 24 ab 9d 10 c0 	movl   $0xc0109dab,(%esp)
c01041ab:	e8 f7 19 00 00       	call   c0105ba7 <printk>
c01041b0:	8b 45 c8             	mov    -0x38(%ebp),%eax
c01041b3:	89 44 24 04          	mov    %eax,0x4(%esp)
c01041b7:	c7 04 24 c3 9d 10 c0 	movl   $0xc0109dc3,(%esp)
c01041be:	e8 e4 19 00 00       	call   c0105ba7 <printk>
c01041c3:	8b 45 e8             	mov    -0x18(%ebp),%eax
c01041c6:	89 44 24 04          	mov    %eax,0x4(%esp)
c01041ca:	c7 04 24 da 9d 10 c0 	movl   $0xc0109dda,(%esp)
c01041d1:	e8 d1 19 00 00       	call   c0105ba7 <printk>
c01041d6:	8b 45 e0             	mov    -0x20(%ebp),%eax
c01041d9:	89 44 24 04          	mov    %eax,0x4(%esp)
c01041dd:	c7 04 24 f1 9d 10 c0 	movl   $0xc0109df1,(%esp)
c01041e4:	e8 be 19 00 00       	call   c0105ba7 <printk>
c01041e9:	c7 44 24 08 20 00 00 	movl   $0x20,0x8(%esp)
c01041f0:	00 
c01041f1:	c7 44 24 04 00 00 01 	movl   $0x2010000,0x4(%esp)
c01041f8:	02 
c01041f9:	c7 04 24 0c 9e 10 c0 	movl   $0xc0109e0c,(%esp)
c0104200:	e8 a2 19 00 00       	call   c0105ba7 <printk>
c0104205:	c7 44 24 04 38 00 00 	movl   $0x38,0x4(%esp)
c010420c:	00 
c010420d:	8d 45 90             	lea    -0x70(%ebp),%eax
c0104210:	89 04 24             	mov    %eax,(%esp)
c0104213:	e8 a0 01 00 00       	call   c01043b8 <bzero>
c0104218:	66 c7 45 90 aa 00    	movw   $0xaa,-0x70(%ebp)
c010421e:	8b 45 e4             	mov    -0x1c(%ebp),%eax
c0104221:	89 45 94             	mov    %eax,-0x6c(%ebp)
c0104224:	8b 45 e0             	mov    -0x20(%ebp),%eax
c0104227:	89 45 98             	mov    %eax,-0x68(%ebp)
c010422a:	8b 45 10             	mov    0x10(%ebp),%eax
c010422d:	89 45 9c             	mov    %eax,-0x64(%ebp)
c0104230:	c7 45 a0 00 00 01 02 	movl   $0x2010000,-0x60(%ebp)
c0104237:	c7 45 a4 00 00 00 00 	movl   $0x0,-0x5c(%ebp)
c010423e:	8b 45 ec             	mov    -0x14(%ebp),%eax
c0104241:	89 45 a8             	mov    %eax,-0x58(%ebp)
c0104244:	8b 45 e8             	mov    -0x18(%ebp),%eax
c0104247:	89 45 ac             	mov    %eax,-0x54(%ebp)
c010424a:	8b 45 dc             	mov    -0x24(%ebp),%eax
c010424d:	89 45 b0             	mov    %eax,-0x50(%ebp)
c0104250:	8b 45 d8             	mov    -0x28(%ebp),%eax
c0104253:	89 45 b4             	mov    %eax,-0x4c(%ebp)
c0104256:	8b 45 d4             	mov    -0x2c(%ebp),%eax
c0104259:	89 45 b8             	mov    %eax,-0x48(%ebp)
c010425c:	8b 45 d0             	mov    -0x30(%ebp),%eax
c010425f:	89 45 bc             	mov    %eax,-0x44(%ebp)
c0104262:	8b 45 cc             	mov    -0x34(%ebp),%eax
c0104265:	89 45 c0             	mov    %eax,-0x40(%ebp)
c0104268:	8b 45 c8             	mov    -0x38(%ebp),%eax
c010426b:	89 45 c4             	mov    %eax,-0x3c(%ebp)
c010426e:	c9                   	leave  
c010426f:	c3                   	ret    

c0104270 <sfs_read_super>:
c0104270:	55                   	push   %ebp
c0104271:	89 e5                	mov    %esp,%ebp
c0104273:	c7 05 b8 b0 10 c0 00 	movl   $0x0,0xc010b0b8
c010427a:	00 00 00 
c010427d:	b8 00 00 00 00       	mov    $0x0,%eax
c0104282:	5d                   	pop    %ebp
c0104283:	c3                   	ret    

c0104284 <sfs_write_super>:
c0104284:	55                   	push   %ebp
c0104285:	89 e5                	mov    %esp,%ebp
c0104287:	5d                   	pop    %ebp
c0104288:	c3                   	ret    

c0104289 <sfs_read_inode_map>:
c0104289:	55                   	push   %ebp
c010428a:	89 e5                	mov    %esp,%ebp
c010428c:	c7 05 bc b0 10 c0 00 	movl   $0x0,0xc010b0bc
c0104293:	00 00 00 
c0104296:	b8 00 00 00 00       	mov    $0x0,%eax
c010429b:	5d                   	pop    %ebp
c010429c:	c3                   	ret    

c010429d <sfs_write_inode_map>:
c010429d:	55                   	push   %ebp
c010429e:	89 e5                	mov    %esp,%ebp
c01042a0:	5d                   	pop    %ebp
c01042a1:	c3                   	ret    

c01042a2 <sfs_read_block_map>:
c01042a2:	55                   	push   %ebp
c01042a3:	89 e5                	mov    %esp,%ebp
c01042a5:	c7 05 c0 b0 10 c0 00 	movl   $0x0,0xc010b0c0
c01042ac:	00 00 00 
c01042af:	b8 00 00 00 00       	mov    $0x0,%eax
c01042b4:	5d                   	pop    %ebp
c01042b5:	c3                   	ret    

c01042b6 <sfs_write_block_map>:
c01042b6:	55                   	push   %ebp
c01042b7:	89 e5                	mov    %esp,%ebp
c01042b9:	5d                   	pop    %ebp
c01042ba:	c3                   	ret    

c01042bb <sfs_alloc_inode>:
c01042bb:	55                   	push   %ebp
c01042bc:	89 e5                	mov    %esp,%ebp
c01042be:	b8 00 00 00 00       	mov    $0x0,%eax
c01042c3:	5d                   	pop    %ebp
c01042c4:	c3                   	ret    

c01042c5 <sfs_free_inode>:
c01042c5:	55                   	push   %ebp
c01042c6:	89 e5                	mov    %esp,%ebp
c01042c8:	5d                   	pop    %ebp
c01042c9:	c3                   	ret    

c01042ca <sfs_alloc_block>:
c01042ca:	55                   	push   %ebp
c01042cb:	89 e5                	mov    %esp,%ebp
c01042cd:	b8 00 00 00 00       	mov    $0x0,%eax
c01042d2:	5d                   	pop    %ebp
c01042d3:	c3                   	ret    

c01042d4 <sfs_free_block>:
c01042d4:	55                   	push   %ebp
c01042d5:	89 e5                	mov    %esp,%ebp
c01042d7:	5d                   	pop    %ebp
c01042d8:	c3                   	ret    

c01042d9 <sfs_read_inode>:
c01042d9:	55                   	push   %ebp
c01042da:	89 e5                	mov    %esp,%ebp
c01042dc:	b8 00 00 00 00       	mov    $0x0,%eax
c01042e1:	5d                   	pop    %ebp
c01042e2:	c3                   	ret    

c01042e3 <sfs_read_block>:
c01042e3:	55                   	push   %ebp
c01042e4:	89 e5                	mov    %esp,%ebp
c01042e6:	b8 00 00 00 00       	mov    $0x0,%eax
c01042eb:	5d                   	pop    %ebp
c01042ec:	c3                   	ret    

c01042ed <fs_init>:
c01042ed:	55                   	push   %ebp
c01042ee:	89 e5                	mov    %esp,%ebp
c01042f0:	83 ec 08             	sub    $0x8,%esp
c01042f3:	e8 fb f6 ff ff       	call   c01039f3 <vfs_init>
c01042f8:	e8 0c 17 00 00       	call   c0105a09 <device_init>
c01042fd:	e8 1c fc ff ff       	call   c0103f1e <sfs_init>
c0104302:	c9                   	leave  
c0104303:	c3                   	ret    

c0104304 <read_mbr_info>:
c0104304:	55                   	push   %ebp
c0104305:	89 e5                	mov    %esp,%ebp
c0104307:	83 ec 38             	sub    $0x38,%esp
c010430a:	c7 45 e4 00 00 00 00 	movl   $0x0,-0x1c(%ebp)
c0104311:	c7 45 e8 00 00 00 00 	movl   $0x0,-0x18(%ebp)
c0104318:	c7 45 ec 01 00 00 00 	movl   $0x1,-0x14(%ebp)
c010431f:	c7 45 f0 20 70 11 c0 	movl   $0xc0117020,-0x10(%ebp)
c0104326:	c7 45 f4 00 02 00 00 	movl   $0x200,-0xc(%ebp)
c010432d:	8b 45 08             	mov    0x8(%ebp),%eax
c0104330:	8b 40 18             	mov    0x18(%eax),%eax
c0104333:	8d 55 e4             	lea    -0x1c(%ebp),%edx
c0104336:	89 14 24             	mov    %edx,(%esp)
c0104339:	ff d0                	call   *%eax
c010433b:	85 c0                	test   %eax,%eax
c010433d:	75 07                	jne    c0104346 <read_mbr_info+0x42>
c010433f:	b8 00 00 00 00       	mov    $0x0,%eax
c0104344:	eb 05                	jmp    c010434b <read_mbr_info+0x47>
c0104346:	b8 ff ff ff ff       	mov    $0xffffffff,%eax
c010434b:	c9                   	leave  
c010434c:	c3                   	ret    

c010434d <show_partition_info>:
c010434d:	55                   	push   %ebp
c010434e:	89 e5                	mov    %esp,%ebp
c0104350:	5d                   	pop    %ebp
c0104351:	c3                   	ret    

c0104352 <memcpy>:
c0104352:	55                   	push   %ebp
c0104353:	89 e5                	mov    %esp,%ebp
c0104355:	83 ec 10             	sub    $0x10,%esp
c0104358:	8b 45 0c             	mov    0xc(%ebp),%eax
c010435b:	89 45 fc             	mov    %eax,-0x4(%ebp)
c010435e:	8b 45 08             	mov    0x8(%ebp),%eax
c0104361:	89 45 f8             	mov    %eax,-0x8(%ebp)
c0104364:	eb 1b                	jmp    c0104381 <memcpy+0x2f>
c0104366:	8b 45 f8             	mov    -0x8(%ebp),%eax
c0104369:	8d 50 01             	lea    0x1(%eax),%edx
c010436c:	89 55 f8             	mov    %edx,-0x8(%ebp)
c010436f:	8b 55 fc             	mov    -0x4(%ebp),%edx
c0104372:	8d 4a 01             	lea    0x1(%edx),%ecx
c0104375:	89 4d fc             	mov    %ecx,-0x4(%ebp)
c0104378:	0f b6 12             	movzbl (%edx),%edx
c010437b:	88 10                	mov    %dl,(%eax)
c010437d:	83 6d 10 01          	subl   $0x1,0x10(%ebp)
c0104381:	83 7d 10 00          	cmpl   $0x0,0x10(%ebp)
c0104385:	75 df                	jne    c0104366 <memcpy+0x14>
c0104387:	c9                   	leave  
c0104388:	c3                   	ret    

c0104389 <memset>:
c0104389:	55                   	push   %ebp
c010438a:	89 e5                	mov    %esp,%ebp
c010438c:	83 ec 14             	sub    $0x14,%esp
c010438f:	8b 45 0c             	mov    0xc(%ebp),%eax
c0104392:	88 45 ec             	mov    %al,-0x14(%ebp)
c0104395:	8b 45 08             	mov    0x8(%ebp),%eax
c0104398:	89 45 fc             	mov    %eax,-0x4(%ebp)
c010439b:	eb 13                	jmp    c01043b0 <memset+0x27>
c010439d:	8b 45 fc             	mov    -0x4(%ebp),%eax
c01043a0:	8d 50 01             	lea    0x1(%eax),%edx
c01043a3:	89 55 fc             	mov    %edx,-0x4(%ebp)
c01043a6:	0f b6 55 ec          	movzbl -0x14(%ebp),%edx
c01043aa:	88 10                	mov    %dl,(%eax)
c01043ac:	83 6d 10 01          	subl   $0x1,0x10(%ebp)
c01043b0:	83 7d 10 00          	cmpl   $0x0,0x10(%ebp)
c01043b4:	75 e7                	jne    c010439d <memset+0x14>
c01043b6:	c9                   	leave  
c01043b7:	c3                   	ret    

c01043b8 <bzero>:
c01043b8:	55                   	push   %ebp
c01043b9:	89 e5                	mov    %esp,%ebp
c01043bb:	83 ec 0c             	sub    $0xc,%esp
c01043be:	8b 45 0c             	mov    0xc(%ebp),%eax
c01043c1:	89 44 24 08          	mov    %eax,0x8(%esp)
c01043c5:	c7 44 24 04 00 00 00 	movl   $0x0,0x4(%esp)
c01043cc:	00 
c01043cd:	8b 45 08             	mov    0x8(%ebp),%eax
c01043d0:	89 04 24             	mov    %eax,(%esp)
c01043d3:	e8 b1 ff ff ff       	call   c0104389 <memset>
c01043d8:	c9                   	leave  
